 lma

 Timestamp is 50d848f0 (Mon Dec 24 20:22:08 2012)

 Preferred load address is 0000000180000000

 Start         Length     Name                   Class
 0001:00000000 0000c4f9H .text                   CODE
 0001:0000c500 00001022H .text$x                 CODE
 0001:0000d530 000005bbH .text$yc                CODE
 0001:0000daf0 00000448H .text$yd                CODE
 0002:00000000 000008a0H .idata$5                DATA
 0002:000008a0 00000008H .CRT$XCA                DATA
 0002:000008a8 000000b8H .CRT$XCU                DATA
 0002:00000960 00000008H .CRT$XCZ                DATA
 0002:00000968 00000008H .CRT$XIA                DATA
 0002:00000970 00000008H .CRT$XIAA               DATA
 0002:00000978 00000008H .CRT$XIZ                DATA
 0002:00000980 00003819H .rdata                  DATA
 0002:0000419c 00000072H .rdata$debug            DATA
 0002:00004210 0000087cH .rdata$r                DATA
 0002:00004a90 00000008H .rtc$IAA                DATA
 0002:00004a98 00000000H .rtc$IMZ                DATA
 0002:00004a98 00000008H .rtc$IZZ                DATA
 0002:00004aa0 00000008H .rtc$TAA                DATA
 0002:00004aa8 00000000H .rtc$TMZ                DATA
 0002:00004aa8 00000008H .rtc$TZZ                DATA
 0002:00004ab0 0000122cH .xdata                  DATA
 0002:00005ce0 00000084H .xdata$x                DATA
 0002:00005d68 00000000H ATL$__a                 DATA
 0002:00005d68 00000000H ATL$__z                 DATA
 0002:00005d68 00000104H .idata$2                DATA
 0002:00005e6c 00000014H .idata$3                DATA
 0002:00005e80 000008a0H .idata$4                DATA
 0002:00006720 000013a6H .idata$6                DATA
 0002:00007ad0 00000065H .edata                  DATA
 0003:00000000 00000544H .data                   DATA
 0003:00000550 00000d08H .bss                    DATA
 0004:00000000 00001494H .pdata                  DATA
 0005:00000000 00000ad8H .rsrc$01                DATA
 0005:00000ae0 00003f40H .rsrc$02                DATA

  Address         Publics by Value              Rva+Base               Lib:Object

 0000:00000000       ___safe_se_handler_count   0000000000000000     <absolute>
 0000:00000000       ___safe_se_handler_table   0000000000000000     <absolute>
 0000:00000000       __ImageBase                0000000180000000     <linker-defined>
 0001:00000000       ?_GetBaseClass@LineConfigDialog@config@assistent@guch@com@@KAPEAUCRuntimeClass@@XZ 0000000180001000 f   LineConfigDialog.obj
 0001:00000000       ?_GetBaseClass@AddLineDialog@@KAPEAUCRuntimeClass@@XZ 0000000180001000 f   AddLineDialog.obj
 0001:00000020       ?GetRuntimeClass@AddLineDialog@@UEBAPEAUCRuntimeClass@@XZ 0000000180001020 f   AddLineDialog.obj
 0001:00000030       ??0AddLineDialog@@QEAA@PEAVCWnd@@@Z 0000000180001030 f   AddLineDialog.obj
 0001:000000c0       ?BeginModalState@CWnd@@UEAAXXZ 00000001800010c0 f i AddLineDialog.obj
 0001:00000100       ?EndModalState@CWnd@@UEAAXXZ 0000000180001100 f i AddLineDialog.obj
 0001:00000140       ??0CListCtrl@@QEAA@XZ      0000000180001140 f i AddLineDialog.obj
 0001:00000190       ??_GCListCtrl@@UEAAPEAXI@Z 0000000180001190 f i AddLineDialog.obj
 0001:00000190       ??_ECListCtrl@@UEAAPEAXI@Z 0000000180001190 f i AddLineDialog.obj
 0001:000001e0       ??3CObject@@SAXPEAX@Z      00000001800011e0 f i AddLineDialog.obj
 0001:00000210       ??0CTreeCtrl@@QEAA@XZ      0000000180001210 f i AddLineDialog.obj
 0001:00000260       ??_GCTreeCtrl@@UEAAPEAXI@Z 0000000180001260 f i AddLineDialog.obj
 0001:00000260       ??_ECTreeCtrl@@UEAAPEAXI@Z 0000000180001260 f i AddLineDialog.obj
 0001:000002b0       ??_EAddLineDialog@@UEAAPEAXI@Z 00000001800012b0 f i AddLineDialog.obj
 0001:000002b0       ??_GAddLineDialog@@UEAAPEAXI@Z 00000001800012b0 f i AddLineDialog.obj
 0001:00000300       ?OnInitDialog@AddLineDialog@@MEAAHXZ 0000000180001300 f   AddLineDialog.obj
 0001:00000360       ?InitLineList@AddLineDialog@@IEAAHXZ 0000000180001360 f   AddLineDialog.obj
 0001:00000540       ?InsertItem@CTreeCtrl@@QEAAPEAU_TREEITEM@@PEB_WPEAU2@1@Z 0000000180001540 f i AddLineDialog.obj
 0001:000005c0       ?InitLineDetailHeader@AddLineDialog@@IEAAHXZ 00000001800015c0 f   AddLineDialog.obj
 0001:00000790       ?InsertColumn@CListCtrl@@QEAAHHPEBUtagLVCOLUMNW@@@Z 0000000180001790 f i AddLineDialog.obj
 0001:000007f0       ?SetExtendedStyle@CListCtrl@@QEAAKK@Z 00000001800017f0 f i AddLineDialog.obj
 0001:00000840       ?InitLineDetailData@AddLineDialog@@IEAAHXZ 0000000180001840 f   AddLineDialog.obj
 0001:000009e0       ?InsertItem@CListCtrl@@QEAAHPEBUtagLVITEMW@@@Z 00000001800019e0 f i AddLineDialog.obj
 0001:00000a30       ??1AddLineDialog@@UEAA@XZ  0000000180001a30 f   AddLineDialog.obj
 0001:00000aa0       ?DoDataExchange@AddLineDialog@@MEAAXPEAVCDataExchange@@@Z 0000000180001aa0 f   AddLineDialog.obj
 0001:00000b20       ?GetMessageMap@AddLineDialog@@MEBAPEBUAFX_MSGMAP@@XZ 0000000180001b20 f   AddLineDialog.obj
 0001:00000b50       ?GetThisMessageMap@AddLineDialog@@KAPEBUAFX_MSGMAP@@XZ 0000000180001b50 f   AddLineDialog.obj
 0001:00000b60       ?instance@CommandManager@@SAPEAV1@XZ 0000000180001b60 f   CommandManager.obj
 0001:00000be0       ?Release@CommandManager@@SAXXZ 0000000180001be0 f   CommandManager.obj
 0001:00000c50       ??_GCommandManager@@AEAAPEAXI@Z 0000000180001c50 f i CommandManager.obj
 0001:00000ca0       ??0CommandManager@@AEAA@XZ 0000000180001ca0 f   CommandManager.obj
 0001:00000dc0       ??1?$map@V?$basic_string@_WU?$char_traits@_W@std@@V?$allocator@_W@2@@std@@P6AXXZU?$less@V?$basic_string@_WU?$char_traits@_W@std@@V?$allocator@_W@2@@std@@@2@V?$allocator@U?$pair@$$CBV?$basic_string@_WU?$char_traits@_W@std@@V?$allocator@_W@2@@std@@P6AXXZ@std@@@2@@std@@QEAA@XZ 0000000180001dc0 f i CommandManager.obj
 0001:00000df0       ??1CommandManager@@AEAA@XZ 0000000180001df0 f   CommandManager.obj
 0001:00000e20       ?RegisterCommand@CommandManager@@QEBAXXZ 0000000180001e20 f   CommandManager.obj
 0001:00001010       ?cast@AcEdCommandStack@@SAPEAV1@PEBVAcRxObject@@@Z 0000000180002010 f i CommandManager.obj
 0001:00001070       ?isKindOf@AcRxObject@@QEBA_NPEBVAcRxClass@@@Z 0000000180002070 f i CommandManager.obj
 0001:000010e0       ??0CAcModuleResourceOverride@@QEAA@XZ 00000001800020e0 f i CommandManager.obj
 0001:00001140       ?size@?$_Tree@V?$_Tmap_traits@V?$basic_string@_WU?$char_traits@_W@std@@V?$allocator@_W@2@@std@@P6AXXZU?$less@V?$basic_string@_WU?$char_traits@_W@std@@V?$allocator@_W@2@@std@@@2@V?$allocator@U?$pair@$$CBV?$basic_string@_WU?$char_traits@_W@std@@V?$allocator@_W@2@@std@@P6AXXZ@std@@@2@$0A@@std@@@std@@QEBA_KXZ 0000000180002140 f i CommandManager.obj
 0001:00001140       ?ModuleResourceInstance@CAcExtensionModule@@QEAAPEAUHINSTANCE__@@XZ 0000000180002140 f i CommandManager.obj
 0001:00001140       ?workingDatabase@AcDbHostApplicationServices@@QEBAPEAVAcDbDatabase@@XZ 0000000180002140 f i AsdkAcUiDialogSample.obj
 0001:00001140       ?size@?$basic_string@DU?$char_traits@D@std@@V?$allocator@D@2@@std@@QEBA_KXZ 0000000180002140 f i LineConfigDataManager.obj
 0001:00001140       ?size@?$basic_string@_WU?$char_traits@_W@std@@V?$allocator@_W@2@@std@@QEBA_KXZ 0000000180002140 f i CommandManager.obj
 0001:00001160       ??1CAcModuleResourceOverride@@QEAA@XZ 0000000180002160 f i CommandManager.obj
 0001:000011b0       ?UnRegisterCommand@CommandManager@@QEBAXXZ 00000001800021b0 f   CommandManager.obj
 0001:00001230       ?ShowConfigDialog@CommandManager@@SAXXZ 0000000180002230 f   CommandManager.obj
 0001:000012d0       ?ShowAddLineDialog@CommandManager@@SAXXZ 00000001800022d0 f   CommandManager.obj
 0001:00001350       ?PostToModelSpace@@YA?AVAcDbObjectId@@PEAVAcDbEntity@@@Z 0000000180002350 f   CommandManager.obj
 0001:00001430       ??0?$_Tree_unchecked_const_iterator@V?$_Tree_val@V?$_Tmap_traits@V?$basic_string@_WU?$char_traits@_W@std@@V?$allocator@_W@2@@std@@P6AXXZU?$less@V?$basic_string@_WU?$char_traits@_W@std@@V?$allocator@_W@2@@std@@@2@V?$allocator@U?$pair@$$CBV?$basic_string@_WU?$char_traits@_W@std@@V?$allocator@_W@2@@std@@P6AXXZ@std@@@2@$0A@@std@@@std@@U_Iterator_base0@2@@std@@QEAA@XZ 0000000180002430 f i CommandManager.obj
 0001:00001430       ??0AcDbObjectId@@QEAA@XZ   0000000180002430 f i CommandManager.obj
 0001:00001450       ?getBlockTable@AcDbDatabase@@QEAA?AW4ErrorStatus@Acad@@AEAPEAVAcDbBlockTable@@W4OpenMode@AcDb@@@Z 0000000180002450 f i CommandManager.obj
 0001:000014a0       ?moveToBottom@@YAXPEAVAcDbEntity@@@Z 00000001800024a0 f   CommandManager.obj
 0001:00001560       ?drawCylinder@@YAXXZ       0000000180002560 f   CommandManager.obj
 0001:00001700       ??2AcHeapOperators@@SAPEAX_K@Z 0000000180002700 f i CommandManager.obj
 0001:00001740       ??3AcHeapOperators@@SAXPEAX@Z 0000000180002740 f i CommandManager.obj
 0001:00001780       ?GenerateCut@CommandManager@@SAXXZ 0000000180002780 f   CommandManager.obj
 0001:000017a0       ??0?$basic_string@_WU?$char_traits@_W@std@@V?$allocator@_W@2@@std@@QEAA@PEB_W@Z 00000001800027a0 f i CommandManager.obj
 0001:00001820       ??1?$basic_string@_WU?$char_traits@_W@std@@V?$allocator@_W@2@@std@@QEAA@XZ 0000000180002820 f i CommandManager.obj
 0001:00001870       ?c_str@?$basic_string@_WU?$char_traits@_W@std@@V?$allocator@_W@2@@std@@QEBAPEB_WXZ 0000000180002870 f i CommandManager.obj
 0001:000018a0       ??0?$map@V?$basic_string@_WU?$char_traits@_W@std@@V?$allocator@_W@2@@std@@P6AXXZU?$less@V?$basic_string@_WU?$char_traits@_W@std@@V?$allocator@_W@2@@std@@@2@V?$allocator@U?$pair@$$CBV?$basic_string@_WU?$char_traits@_W@std@@V?$allocator@_W@2@@std@@P6AXXZ@std@@@2@@std@@QEAA@XZ 00000001800028a0 f i CommandManager.obj
 0001:000018f0       ??A?$map@V?$basic_string@_WU?$char_traits@_W@std@@V?$allocator@_W@2@@std@@P6AXXZU?$less@V?$basic_string@_WU?$char_traits@_W@std@@V?$allocator@_W@2@@std@@@2@V?$allocator@U?$pair@$$CBV?$basic_string@_WU?$char_traits@_W@std@@V?$allocator@_W@2@@std@@P6AXXZ@std@@@2@@std@@QEAAAEAP6AXXZAEBV?$basic_string@_WU?$char_traits@_W@std@@V?$allocator@_W@2@@1@@Z 00000001800028f0 f i CommandManager.obj
 0001:00001a60       ??1?$_Tree@V?$_Tmap_traits@V?$basic_string@_WU?$char_traits@_W@std@@V?$allocator@_W@2@@std@@P6AXXZU?$less@V?$basic_string@_WU?$char_traits@_W@std@@V?$allocator@_W@2@@std@@@2@V?$allocator@U?$pair@$$CBV?$basic_string@_WU?$char_traits@_W@std@@V?$allocator@_W@2@@std@@P6AXXZ@std@@@2@$0A@@std@@@std@@QEAA@XZ 0000000180002a60 f i CommandManager.obj
 0001:00001ab0       ?begin@?$_Tree@V?$_Tmap_traits@V?$basic_string@_WU?$char_traits@_W@std@@V?$allocator@_W@2@@std@@P6AXXZU?$less@V?$basic_string@_WU?$char_traits@_W@std@@V?$allocator@_W@2@@std@@@2@V?$allocator@U?$pair@$$CBV?$basic_string@_WU?$char_traits@_W@std@@V?$allocator@_W@2@@std@@P6AXXZ@std@@@2@$0A@@std@@@std@@QEBA?AV?$_Tree_const_iterator@V?$_Tree_val@V?$_Tmap_traits@V?$basic_string@_WU?$char_traits@_W@std@@V?$allocator@_W@2@@std@@P6AXXZU?$less@V?$basic_string@_WU?$char_traits@_W@std@@V?$allocator@_W@2@@std@@@2@V?$allocator@U?$pair@$$CBV?$basic_string@_WU?$char_traits@_W@std@@V?$allocator@_W@2@@std@@P6AXXZ@std@@@2@$0A@@std@@@std@@@2@XZ 0000000180002ab0 f i CommandManager.obj
 0001:00001b00       ??E?$_Tree_const_iterator@V?$_Tree_val@V?$_Tmap_traits@V?$basic_string@_WU?$char_traits@_W@std@@V?$allocator@_W@2@@std@@P6AXXZU?$less@V?$basic_string@_WU?$char_traits@_W@std@@V?$allocator@_W@2@@std@@@2@V?$allocator@U?$pair@$$CBV?$basic_string@_WU?$char_traits@_W@std@@V?$allocator@_W@2@@std@@P6AXXZ@std@@@2@$0A@@std@@@std@@@std@@QEAA?AV01@H@Z 0000000180002b00 f i CommandManager.obj
 0001:00001b70       ??9?$_Tree_const_iterator@V?$_Tree_val@V?$_Tmap_traits@V?$basic_string@_WU?$char_traits@_W@std@@V?$allocator@_W@2@@std@@P6AXXZU?$less@V?$basic_string@_WU?$char_traits@_W@std@@V?$allocator@_W@2@@std@@@2@V?$allocator@U?$pair@$$CBV?$basic_string@_WU?$char_traits@_W@std@@V?$allocator@_W@2@@std@@P6AXXZ@std@@@2@$0A@@std@@@std@@@std@@QEBA_NAEBV01@@Z 0000000180002b70 f i CommandManager.obj
 0001:00001bd0       ??C?$_Tree_unchecked_const_iterator@V?$_Tree_val@V?$_Tmap_traits@V?$basic_string@_WU?$char_traits@_W@std@@V?$allocator@_W@2@@std@@P6AXXZU?$less@V?$basic_string@_WU?$char_traits@_W@std@@V?$allocator@_W@2@@std@@@2@V?$allocator@U?$pair@$$CBV?$basic_string@_WU?$char_traits@_W@std@@V?$allocator@_W@2@@std@@P6AXXZ@std@@@2@$0A@@std@@@std@@U_Iterator_base0@2@@std@@QEBAPEBU?$pair@$$CBV?$basic_string@_WU?$char_traits@_W@std@@V?$allocator@_W@2@@std@@P6AXXZ@1@XZ 0000000180002bd0 f i CommandManager.obj
 0001:00001bd0       ??D?$_Tree_iterator@V?$_Tree_val@V?$_Tmap_traits@V?$basic_string@_WU?$char_traits@_W@std@@V?$allocator@_W@2@@std@@P6AXXZU?$less@V?$basic_string@_WU?$char_traits@_W@std@@V?$allocator@_W@2@@std@@@2@V?$allocator@U?$pair@$$CBV?$basic_string@_WU?$char_traits@_W@std@@V?$allocator@_W@2@@std@@P6AXXZ@std@@@2@$0A@@std@@@std@@@std@@QEBAAEAU?$pair@$$CBV?$basic_string@_WU?$char_traits@_W@std@@V?$allocator@_W@2@@std@@P6AXXZ@1@XZ 0000000180002bd0 f i CommandManager.obj
 0001:00001c00       ??1?$pair@$$CBV?$basic_string@_WU?$char_traits@_W@std@@V?$allocator@_W@2@@std@@P6AXXZ@std@@QEAA@XZ 0000000180002c00 f i CommandManager.obj
 0001:00001c30       ??1?$_Pair_base@$$CBV?$basic_string@_WU?$char_traits@_W@std@@V?$allocator@_W@2@@std@@P6AXXZ@std@@QEAA@XZ 0000000180002c30 f i CommandManager.obj
 0001:00001c60       ?assign@?$basic_string@_WU?$char_traits@_W@std@@V?$allocator@_W@2@@std@@QEAAAEAV12@PEB_W@Z 0000000180002c60 f i CommandManager.obj
 0001:00001cb0       ?length@?$char_traits@_W@std@@SA_KPEB_W@Z 0000000180002cb0 f i CommandManager.obj
 0001:00001ce0       ?_Tidy@?$basic_string@_WU?$char_traits@_W@std@@V?$allocator@_W@2@@std@@QEAAX_N_K@Z 0000000180002ce0 f i CommandManager.obj
 0001:00001d90       ?copy@?$char_traits@_W@std@@SAPEA_WPEA_WPEB_W_K@Z 0000000180002d90 f i CommandManager.obj
 0001:00001de0       wmemcpy                    0000000180002de0 f i CommandManager.obj
 0001:00001e30       ?_Myptr@?$basic_string@_WU?$char_traits@_W@std@@V?$allocator@_W@2@@std@@QEAAPEA_WXZ 0000000180002e30 f i CommandManager.obj
 0001:00001e30       ?_Myptr@?$basic_string@_WU?$char_traits@_W@std@@V?$allocator@_W@2@@std@@QEBAPEB_WXZ 0000000180002e30 f i CommandManager.obj
 0001:00001e80       ??0?$allocator@U?$pair@$$CBV?$basic_string@_WU?$char_traits@_W@std@@V?$allocator@_W@2@@std@@P6AXXZ@std@@@std@@QEAA@AEBV01@@Z 0000000180002e80 f i CommandManager.obj
 0001:00001e80       ??0?$allocator@D@std@@QEAA@AEBV01@@Z 0000000180002e80 f i LineConfigDataManager.obj
 0001:00001e80       ??0?$allocator@_W@std@@QEAA@AEBV01@@Z 0000000180002e80 f i CommandManager.obj
 0001:00001e80       ??$?0U?$pair@$$CBV?$basic_string@_WU?$char_traits@_W@std@@V?$allocator@_W@2@@std@@P6AXXZ@std@@@?$allocator@U_Node@?$_Tree_nod@V?$_Tmap_traits@V?$basic_string@_WU?$char_traits@_W@std@@V?$allocator@_W@2@@std@@P6AXXZU?$less@V?$basic_string@_WU?$char_traits@_W@std@@V?$allocator@_W@2@@std@@@2@V?$allocator@U?$pair@$$CBV?$basic_string@_WU?$char_traits@_W@std@@V?$allocator@_W@2@@std@@P6AXXZ@std@@@2@$0A@@std@@@std@@@std@@QEAA@AEBV?$allocator@U?$pair@$$CBV?$basic_string@_WU?$char_traits@_W@std@@V?$allocator@_W@2@@std@@P6AXXZ@std@@@1@@Z 0000000180002e80 f i CommandManager.obj
 0001:00001e80       ??0?$allocator@PEAULineCategoryItemData@config@assistent@guch@com@@@std@@QEAA@AEBV01@@Z 0000000180002e80 f i LineConfigDataManager.obj
 0001:00001ea0       ??0?$_Tree@V?$_Tmap_traits@V?$basic_string@_WU?$char_traits@_W@std@@V?$allocator@_W@2@@std@@P6AXXZU?$less@V?$basic_string@_WU?$char_traits@_W@std@@V?$allocator@_W@2@@std@@@2@V?$allocator@U?$pair@$$CBV?$basic_string@_WU?$char_traits@_W@std@@V?$allocator@_W@2@@std@@P6AXXZ@std@@@2@$0A@@std@@@std@@QEAA@AEBU?$less@V?$basic_string@_WU?$char_traits@_W@std@@V?$allocator@_W@2@@std@@@1@AEBV?$allocator@U?$pair@$$CBV?$basic_string@_WU?$char_traits@_W@std@@V?$allocator@_W@2@@std@@P6AXXZ@std@@@1@@Z 0000000180002ea0 f i CommandManager.obj
 0001:00001f00       ?end@?$_Tree@V?$_Tmap_traits@V?$basic_string@_WU?$char_traits@_W@std@@V?$allocator@_W@2@@std@@P6AXXZU?$less@V?$basic_string@_WU?$char_traits@_W@std@@V?$allocator@_W@2@@std@@@2@V?$allocator@U?$pair@$$CBV?$basic_string@_WU?$char_traits@_W@std@@V?$allocator@_W@2@@std@@P6AXXZ@std@@@2@$0A@@std@@@std@@QEAA?AV?$_Tree_iterator@V?$_Tree_val@V?$_Tmap_traits@V?$basic_string@_WU?$char_traits@_W@std@@V?$allocator@_W@2@@std@@P6AXXZU?$less@V?$basic_string@_WU?$char_traits@_W@std@@V?$allocator@_W@2@@std@@@2@V?$allocator@U?$pair@$$CBV?$basic_string@_WU?$char_traits@_W@std@@V?$allocator@_W@2@@std@@P6AXXZ@std@@@2@$0A@@std@@@std@@@2@XZ 0000000180002f00 f i CommandManager.obj
 0001:00001f50       ?lower_bound@?$_Tree@V?$_Tmap_traits@V?$basic_string@_WU?$char_traits@_W@std@@V?$allocator@_W@2@@std@@P6AXXZU?$less@V?$basic_string@_WU?$char_traits@_W@std@@V?$allocator@_W@2@@std@@@2@V?$allocator@U?$pair@$$CBV?$basic_string@_WU?$char_traits@_W@std@@V?$allocator@_W@2@@std@@P6AXXZ@std@@@2@$0A@@std@@@std@@QEAA?AV?$_Tree_iterator@V?$_Tree_val@V?$_Tmap_traits@V?$basic_string@_WU?$char_traits@_W@std@@V?$allocator@_W@2@@std@@P6AXXZU?$less@V?$basic_string@_WU?$char_traits@_W@std@@V?$allocator@_W@2@@std@@@2@V?$allocator@U?$pair@$$CBV?$basic_string@_WU?$char_traits@_W@std@@V?$allocator@_W@2@@std@@P6AXXZ@std@@@2@$0A@@std@@@std@@@2@AEBV?$basic_string@_WU?$char_traits@_W@std@@V?$allocator@_W@2@@2@@Z 0000000180002f50 f i CommandManager.obj
 0001:00001fb0       ?_Lmost@?$_Tree@V?$_Tmap_traits@V?$basic_string@_WU?$char_traits@_W@std@@V?$allocator@_W@2@@std@@P6AXXZU?$less@V?$basic_string@_WU?$char_traits@_W@std@@V?$allocator@_W@2@@std@@@2@V?$allocator@U?$pair@$$CBV?$basic_string@_WU?$char_traits@_W@std@@V?$allocator@_W@2@@std@@P6AXXZ@std@@@2@$0A@@std@@@std@@IEBAAEAPEAU_Node@?$_Tree_nod@V?$_Tmap_traits@V?$basic_string@_WU?$char_traits@_W@std@@V?$allocator@_W@2@@std@@P6AXXZU?$less@V?$basic_string@_WU?$char_traits@_W@std@@V?$allocator@_W@2@@std@@@2@V?$allocator@U?$pair@$$CBV?$basic_string@_WU?$char_traits@_W@std@@V?$allocator@_W@2@@std@@P6AXXZ@std@@@2@$0A@@std@@@2@XZ 0000000180002fb0 f i CommandManager.obj
 0001:00001ff0       ?_Tidy@?$_Tree@V?$_Tmap_traits@V?$basic_string@_WU?$char_traits@_W@std@@V?$allocator@_W@2@@std@@P6AXXZU?$less@V?$basic_string@_WU?$char_traits@_W@std@@V?$allocator@_W@2@@std@@@2@V?$allocator@U?$pair@$$CBV?$basic_string@_WU?$char_traits@_W@std@@V?$allocator@_W@2@@std@@P6AXXZ@std@@@2@$0A@@std@@@std@@IEAAXXZ 0000000180002ff0 f i CommandManager.obj
 0001:00002060       ??1?$_Tree_val@V?$_Tmap_traits@V?$basic_string@_WU?$char_traits@_W@std@@V?$allocator@_W@2@@std@@P6AXXZU?$less@V?$basic_string@_WU?$char_traits@_W@std@@V?$allocator@_W@2@@std@@@2@V?$allocator@U?$pair@$$CBV?$basic_string@_WU?$char_traits@_W@std@@V?$allocator@_W@2@@std@@P6AXXZ@std@@@2@$0A@@std@@@std@@QEAA@XZ 0000000180003060 f i CommandManager.obj
 0001:000020b0       ?_Key@?$_Tree_val@V?$_Tmap_traits@V?$basic_string@_WU?$char_traits@_W@std@@V?$allocator@_W@2@@std@@P6AXXZU?$less@V?$basic_string@_WU?$char_traits@_W@std@@V?$allocator@_W@2@@std@@@2@V?$allocator@U?$pair@$$CBV?$basic_string@_WU?$char_traits@_W@std@@V?$allocator@_W@2@@std@@P6AXXZ@std@@@2@$0A@@std@@@std@@SAAEAV?$basic_string@_WU?$char_traits@_W@std@@V?$allocator@_W@2@@2@PEAU_Node@?$_Tree_nod@V?$_Tmap_traits@V?$basic_string@_WU?$char_traits@_W@std@@V?$allocator@_W@2@@std@@P6AXXZU?$less@V?$basic_string@_WU?$char_traits@_W@std@@V?$allocator@_W@2@@std@@@2@V?$allocator@U?$pair@$$CBV?$basic_string@_WU?$char_traits@_W@std@@V?$allocator@_W@2@@std@@P6AXXZ@std@@@2@$0A@@std@@@2@@Z 00000001800030b0 f i CommandManager.obj
 0001:000020f0       ??R?$less@V?$basic_string@_WU?$char_traits@_W@std@@V?$allocator@_W@2@@std@@@std@@QEBA_NAEBV?$basic_string@_WU?$char_traits@_W@std@@V?$allocator@_W@2@@1@0@Z 00000001800030f0 f i CommandManager.obj
 0001:00002130       ??E?$_Tree_const_iterator@V?$_Tree_val@V?$_Tmap_traits@V?$basic_string@_WU?$char_traits@_W@std@@V?$allocator@_W@2@@std@@P6AXXZU?$less@V?$basic_string@_WU?$char_traits@_W@std@@V?$allocator@_W@2@@std@@@2@V?$allocator@U?$pair@$$CBV?$basic_string@_WU?$char_traits@_W@std@@V?$allocator@_W@2@@std@@P6AXXZ@std@@@2@$0A@@std@@@std@@@std@@QEAAAEAV01@XZ 0000000180003130 f i CommandManager.obj
 0001:00002170       ??8?$_Tree_const_iterator@V?$_Tree_val@V?$_Tmap_traits@V?$basic_string@_WU?$char_traits@_W@std@@V?$allocator@_W@2@@std@@P6AXXZU?$less@V?$basic_string@_WU?$char_traits@_W@std@@V?$allocator@_W@2@@std@@@2@V?$allocator@U?$pair@$$CBV?$basic_string@_WU?$char_traits@_W@std@@V?$allocator@_W@2@@std@@P6AXXZ@std@@@2@$0A@@std@@@std@@@std@@QEBA_NAEBV01@@Z 0000000180003170 f i CommandManager.obj
 0001:000021d0       ??D?$_Tree_unchecked_const_iterator@V?$_Tree_val@V?$_Tmap_traits@V?$basic_string@_WU?$char_traits@_W@std@@V?$allocator@_W@2@@std@@P6AXXZU?$less@V?$basic_string@_WU?$char_traits@_W@std@@V?$allocator@_W@2@@std@@@2@V?$allocator@U?$pair@$$CBV?$basic_string@_WU?$char_traits@_W@std@@V?$allocator@_W@2@@std@@P6AXXZ@std@@@2@$0A@@std@@@std@@U_Iterator_base0@2@@std@@QEBAAEBU?$pair@$$CBV?$basic_string@_WU?$char_traits@_W@std@@V?$allocator@_W@2@@std@@P6AXXZ@1@XZ 00000001800031d0 f i CommandManager.obj
 0001:000021d0       ??D?$_Tree_const_iterator@V?$_Tree_val@V?$_Tmap_traits@V?$basic_string@_WU?$char_traits@_W@std@@V?$allocator@_W@2@@std@@P6AXXZU?$less@V?$basic_string@_WU?$char_traits@_W@std@@V?$allocator@_W@2@@std@@@2@V?$allocator@U?$pair@$$CBV?$basic_string@_WU?$char_traits@_W@std@@V?$allocator@_W@2@@std@@P6AXXZ@std@@@2@$0A@@std@@@std@@@std@@QEBAAEBU?$pair@$$CBV?$basic_string@_WU?$char_traits@_W@std@@V?$allocator@_W@2@@std@@P6AXXZ@1@XZ 00000001800031d0 f i CommandManager.obj
 0001:00002210       ??0?$pair@$$CBV?$basic_string@_WU?$char_traits@_W@std@@V?$allocator@_W@2@@std@@P6AXXZ@std@@QEAA@AEBV?$basic_string@_WU?$char_traits@_W@std@@V?$allocator@_W@2@@1@$$QEAP6AXXZ@Z 0000000180003210 f i CommandManager.obj
 0001:00002260       ?assign@?$basic_string@_WU?$char_traits@_W@std@@V?$allocator@_W@2@@std@@QEAAAEAV12@PEB_W_K@Z 0000000180003260 f i CommandManager.obj
 0001:00002320       ?assign@?$basic_string@_WU?$char_traits@_W@std@@V?$allocator@_W@2@@std@@QEAAAEAV12@AEBV12@_K1@Z 0000000180003320 f i CommandManager.obj
 0001:00002440       ?erase@?$basic_string@_WU?$char_traits@_W@std@@V?$allocator@_W@2@@std@@QEAAAEAV12@_K0@Z 0000000180003440 f i CommandManager.obj
 0001:00002560       ?move@?$char_traits@_W@std@@SAPEA_WPEA_WPEB_W_K@Z 0000000180003560 f i CommandManager.obj
 0001:000025b0       wmemmove                   00000001800035b0 f i CommandManager.obj
 0001:00002600       ?_Eos@?$basic_string@_WU?$char_traits@_W@std@@V?$allocator@_W@2@@std@@QEAAX_K@Z 0000000180003600 f i CommandManager.obj
 0001:00002660       ?assign@?$char_traits@_W@std@@SAXAEA_WAEB_W@Z 0000000180003660 f i CommandManager.obj
 0001:00002680       ?_Grow@?$basic_string@_WU?$char_traits@_W@std@@V?$allocator@_W@2@@std@@QEAA_N_K_N@Z 0000000180003680 f i CommandManager.obj
 0001:00002780       ?_Xran@?$basic_string@DU?$char_traits@D@std@@V?$allocator@D@2@@std@@QEBAXXZ 0000000180003780 f i LineConfigDataManager.obj
 0001:00002780       ?_Xran@?$basic_string@_WU?$char_traits@_W@std@@V?$allocator@_W@2@@std@@QEBAXXZ 0000000180003780 f i CommandManager.obj
 0001:000027c0       ?deallocate@?$allocator@D@std@@QEAAXPEAD_K@Z 00000001800037c0 f i LineConfigDataManager.obj
 0001:000027c0       ?deallocate@?$allocator@_W@std@@QEAAXPEA_W_K@Z 00000001800037c0 f i CommandManager.obj
 0001:000027c0       ?deallocate@?$allocator@U_Node@?$_Tree_nod@V?$_Tmap_traits@V?$basic_string@_WU?$char_traits@_W@std@@V?$allocator@_W@2@@std@@P6AXXZU?$less@V?$basic_string@_WU?$char_traits@_W@std@@V?$allocator@_W@2@@std@@@2@V?$allocator@U?$pair@$$CBV?$basic_string@_WU?$char_traits@_W@std@@V?$allocator@_W@2@@std@@P6AXXZ@std@@@2@$0A@@std@@@std@@@std@@QEAAXPEAU_Node@?$_Tree_nod@V?$_Tmap_traits@V?$basic_string@_WU?$char_traits@_W@std@@V?$allocator@_W@2@@std@@P6AXXZU?$less@V?$basic_string@_WU?$char_traits@_W@std@@V?$allocator@_W@2@@std@@@2@V?$allocator@U?$pair@$$CBV?$basic_string@_WU?$char_traits@_W@std@@V?$allocator@_W@2@@std@@P6AXXZ@std@@@2@$0A@@std@@@2@_K@Z 00000001800037c0 f i CommandManager.obj
 0001:000027c0       ?deallocate@?$allocator@PEAULineCategoryItemData@config@assistent@guch@com@@@std@@QEAAXPEAPEAULineCategoryItemData@config@assistent@guch@com@@_K@Z 00000001800037c0 f i LineConfigDataManager.obj
 0001:00002800       ?begin@?$_Tree@V?$_Tmap_traits@V?$basic_string@_WU?$char_traits@_W@std@@V?$allocator@_W@2@@std@@P6AXXZU?$less@V?$basic_string@_WU?$char_traits@_W@std@@V?$allocator@_W@2@@std@@@2@V?$allocator@U?$pair@$$CBV?$basic_string@_WU?$char_traits@_W@std@@V?$allocator@_W@2@@std@@P6AXXZ@std@@@2@$0A@@std@@@std@@QEAA?AV?$_Tree_iterator@V?$_Tree_val@V?$_Tmap_traits@V?$basic_string@_WU?$char_traits@_W@std@@V?$allocator@_W@2@@std@@P6AXXZU?$less@V?$basic_string@_WU?$char_traits@_W@std@@V?$allocator@_W@2@@std@@@2@V?$allocator@U?$pair@$$CBV?$basic_string@_WU?$char_traits@_W@std@@V?$allocator@_W@2@@std@@P6AXXZ@std@@@2@$0A@@std@@@std@@@2@XZ 0000000180003800 f i CommandManager.obj
 0001:00002850       ?erase@?$_Tree@V?$_Tmap_traits@V?$basic_string@_WU?$char_traits@_W@std@@V?$allocator@_W@2@@std@@P6AXXZU?$less@V?$basic_string@_WU?$char_traits@_W@std@@V?$allocator@_W@2@@std@@@2@V?$allocator@U?$pair@$$CBV?$basic_string@_WU?$char_traits@_W@std@@V?$allocator@_W@2@@std@@P6AXXZ@std@@@2@$0A@@std@@@std@@QEAA?AV?$_Tree_iterator@V?$_Tree_val@V?$_Tmap_traits@V?$basic_string@_WU?$char_traits@_W@std@@V?$allocator@_W@2@@std@@P6AXXZU?$less@V?$basic_string@_WU?$char_traits@_W@std@@V?$allocator@_W@2@@std@@@2@V?$allocator@U?$pair@$$CBV?$basic_string@_WU?$char_traits@_W@std@@V?$allocator@_W@2@@std@@P6AXXZ@std@@@2@$0A@@std@@@std@@@2@V?$_Tree_const_iterator@V?$_Tree_val@V?$_Tmap_traits@V?$basic_string@_WU?$char_traits@_W@std@@V?$allocator@_W@2@@std@@P6AXXZU?$less@V?$basic_string@_WU?$char_traits@_W@std@@V?$allocator@_W@2@@std@@@2@V?$allocator@U?$pair@$$CBV?$basic_string@_WU?$char_traits@_W@std@@V?$allocator@_W@2@@std@@P6AXXZ@std@@@2@$0A@@std@@@std@@@2@0@Z 0000000180003850 f i CommandManager.obj
 0001:00002940       ?_Lbound@?$_Tree@V?$_Tmap_traits@V?$basic_string@_WU?$char_traits@_W@std@@V?$allocator@_W@2@@std@@P6AXXZU?$less@V?$basic_string@_WU?$char_traits@_W@std@@V?$allocator@_W@2@@std@@@2@V?$allocator@U?$pair@$$CBV?$basic_string@_WU?$char_traits@_W@std@@V?$allocator@_W@2@@std@@P6AXXZ@std@@@2@$0A@@std@@@std@@IEAAPEAU_Node@?$_Tree_nod@V?$_Tmap_traits@V?$basic_string@_WU?$char_traits@_W@std@@V?$allocator@_W@2@@std@@P6AXXZU?$less@V?$basic_string@_WU?$char_traits@_W@std@@V?$allocator@_W@2@@std@@@2@V?$allocator@U?$pair@$$CBV?$basic_string@_WU?$char_traits@_W@std@@V?$allocator@_W@2@@std@@P6AXXZ@std@@@2@$0A@@std@@@2@AEBV?$basic_string@_WU?$char_traits@_W@std@@V?$allocator@_W@2@@2@@Z 0000000180003940 f i CommandManager.obj
 0001:00002a00       ??0?$_Tree_val@V?$_Tmap_traits@V?$basic_string@_WU?$char_traits@_W@std@@V?$allocator@_W@2@@std@@P6AXXZU?$less@V?$basic_string@_WU?$char_traits@_W@std@@V?$allocator@_W@2@@std@@@2@V?$allocator@U?$pair@$$CBV?$basic_string@_WU?$char_traits@_W@std@@V?$allocator@_W@2@@std@@P6AXXZ@std@@@2@$0A@@std@@@std@@QEAA@AEBU?$less@V?$basic_string@_WU?$char_traits@_W@std@@V?$allocator@_W@2@@std@@@1@V?$allocator@U?$pair@$$CBV?$basic_string@_WU?$char_traits@_W@std@@V?$allocator@_W@2@@std@@P6AXXZ@std@@@1@@Z 0000000180003a00 f i CommandManager.obj
 0001:00002b00       ?_Myval@?$_Tree_val@V?$_Tmap_traits@V?$basic_string@_WU?$char_traits@_W@std@@V?$allocator@_W@2@@std@@P6AXXZU?$less@V?$basic_string@_WU?$char_traits@_W@std@@V?$allocator@_W@2@@std@@@2@V?$allocator@U?$pair@$$CBV?$basic_string@_WU?$char_traits@_W@std@@V?$allocator@_W@2@@std@@P6AXXZ@std@@@2@$0A@@std@@@std@@SAAEAU?$pair@$$CBV?$basic_string@_WU?$char_traits@_W@std@@V?$allocator@_W@2@@std@@P6AXXZ@2@PEAU_Node@?$_Tree_nod@V?$_Tmap_traits@V?$basic_string@_WU?$char_traits@_W@std@@V?$allocator@_W@2@@std@@P6AXXZU?$less@V?$basic_string@_WU?$char_traits@_W@std@@V?$allocator@_W@2@@std@@@2@V?$allocator@U?$pair@$$CBV?$basic_string@_WU?$char_traits@_W@std@@V?$allocator@_W@2@@std@@P6AXXZ@std@@@2@$0A@@std@@@2@@Z 0000000180003b00 f i CommandManager.obj
 0001:00002b20       ?_Adopt@_Iterator_base0@std@@QEAAXPEBX@Z 0000000180003b20 f i CommandManager.obj
 0001:00002b20       ?Dump@CObject@@UEBAXAEAVCDumpContext@@@Z 0000000180003b20 f i AddLineDialog.obj
 0001:00002b20       ?_Compat@?$_Vector_const_iterator@V?$_Vector_val@PEAULineCategoryItemData@config@assistent@guch@com@@V?$allocator@PEAULineCategoryItemData@config@assistent@guch@com@@@std@@@std@@@std@@QEBAXAEBV12@@Z 0000000180003b20 f i LineConfigDialog.obj
 0001:00002b20       ?Serialize@CObject@@UEAAXAEAVCArchive@@@Z 0000000180003b20 f i AddLineDialog.obj
 0001:00002b20       ??3@YAXPEAX0@Z             0000000180003b20 f i CommandManager.obj
 0001:00002b20       ?DoDataExchange@CWnd@@MEAAXPEAVCDataExchange@@@Z 0000000180003b20 f i AddLineDialog.obj
 0001:00002b30       ??E?$_Tree_unchecked_const_iterator@V?$_Tree_val@V?$_Tmap_traits@V?$basic_string@_WU?$char_traits@_W@std@@V?$allocator@_W@2@@std@@P6AXXZU?$less@V?$basic_string@_WU?$char_traits@_W@std@@V?$allocator@_W@2@@std@@@2@V?$allocator@U?$pair@$$CBV?$basic_string@_WU?$char_traits@_W@std@@V?$allocator@_W@2@@std@@P6AXXZ@std@@@2@$0A@@std@@@std@@U_Iterator_base0@2@@std@@QEAAAEAV01@XZ 0000000180003b30 f i CommandManager.obj
 0001:00002c10       ??0?$_Pair_base@$$CBV?$basic_string@_WU?$char_traits@_W@std@@V?$allocator@_W@2@@std@@P6AXXZ@std@@QEAA@AEBV?$basic_string@_WU?$char_traits@_W@std@@V?$allocator@_W@2@@1@$$QEAP6AXXZ@Z 0000000180003c10 f i CommandManager.obj
 0001:00002c80       ??0?$basic_string@_WU?$char_traits@_W@std@@V?$allocator@_W@2@@std@@QEAA@AEBV01@@Z 0000000180003c80 f i CommandManager.obj
 0001:00002d10       ??0?$_Tree_iterator@V?$_Tree_val@V?$_Tmap_traits@V?$basic_string@_WU?$char_traits@_W@std@@V?$allocator@_W@2@@std@@P6AXXZU?$less@V?$basic_string@_WU?$char_traits@_W@std@@V?$allocator@_W@2@@std@@@2@V?$allocator@U?$pair@$$CBV?$basic_string@_WU?$char_traits@_W@std@@V?$allocator@_W@2@@std@@P6AXXZ@std@@@2@$0A@@std@@@std@@@std@@QEAA@PEAU_Node@?$_Tree_nod@V?$_Tmap_traits@V?$basic_string@_WU?$char_traits@_W@std@@V?$allocator@_W@2@@std@@P6AXXZU?$less@V?$basic_string@_WU?$char_traits@_W@std@@V?$allocator@_W@2@@std@@@2@V?$allocator@U?$pair@$$CBV?$basic_string@_WU?$char_traits@_W@std@@V?$allocator@_W@2@@std@@P6AXXZ@std@@@2@$0A@@std@@@1@PEBV?$_Tree_val@V?$_Tmap_traits@V?$basic_string@_WU?$char_traits@_W@std@@V?$allocator@_W@2@@std@@P6AXXZU?$less@V?$basic_string@_WU?$char_traits@_W@std@@V?$allocator@_W@2@@std@@@2@V?$allocator@U?$pair@$$CBV?$basic_string@_WU?$char_traits@_W@std@@V?$allocator@_W@2@@std@@P6AXXZ@std@@@2@$0A@@std@@@1@@Z 0000000180003d10 f i CommandManager.obj
 0001:00002d60       ?max_size@?$basic_string@_WU?$char_traits@_W@std@@V?$allocator@_W@2@@std@@QEBA_KXZ 0000000180003d60 f i CommandManager.obj
 0001:00002dc0       ?_Copy@?$basic_string@_WU?$char_traits@_W@std@@V?$allocator@_W@2@@std@@QEAAX_K0@Z 0000000180003dc0 f i CommandManager.obj
 0001:00002f50       ?_Inside@?$basic_string@_WU?$char_traits@_W@std@@V?$allocator@_W@2@@std@@QEAA_NPEB_W@Z 0000000180003f50 f i CommandManager.obj
 0001:00002fc0       ?erase@?$_Tree@V?$_Tmap_traits@V?$basic_string@_WU?$char_traits@_W@std@@V?$allocator@_W@2@@std@@P6AXXZU?$less@V?$basic_string@_WU?$char_traits@_W@std@@V?$allocator@_W@2@@std@@@2@V?$allocator@U?$pair@$$CBV?$basic_string@_WU?$char_traits@_W@std@@V?$allocator@_W@2@@std@@P6AXXZ@std@@@2@$0A@@std@@@std@@QEAA?AV?$_Tree_iterator@V?$_Tree_val@V?$_Tmap_traits@V?$basic_string@_WU?$char_traits@_W@std@@V?$allocator@_W@2@@std@@P6AXXZU?$less@V?$basic_string@_WU?$char_traits@_W@std@@V?$allocator@_W@2@@std@@@2@V?$allocator@U?$pair@$$CBV?$basic_string@_WU?$char_traits@_W@std@@V?$allocator@_W@2@@std@@P6AXXZ@std@@@2@$0A@@std@@@std@@@2@V?$_Tree_const_iterator@V?$_Tree_val@V?$_Tmap_traits@V?$basic_string@_WU?$char_traits@_W@std@@V?$allocator@_W@2@@std@@P6AXXZU?$less@V?$basic_string@_WU?$char_traits@_W@std@@V?$allocator@_W@2@@std@@@2@V?$allocator@U?$pair@$$CBV?$basic_string@_WU?$char_traits@_W@std@@V?$allocator@_W@2@@std@@P6AXXZ@std@@@2@$0A@@std@@@std@@@2@@Z 0000000180003fc0 f i CommandManager.obj
 0001:00003820       ?clear@?$_Tree@V?$_Tmap_traits@V?$basic_string@_WU?$char_traits@_W@std@@V?$allocator@_W@2@@std@@P6AXXZU?$less@V?$basic_string@_WU?$char_traits@_W@std@@V?$allocator@_W@2@@std@@@2@V?$allocator@U?$pair@$$CBV?$basic_string@_WU?$char_traits@_W@std@@V?$allocator@_W@2@@std@@P6AXXZ@std@@@2@$0A@@std@@@std@@QEAAXXZ 0000000180004820 f i CommandManager.obj
 0001:000038b0       ?_Root@?$_Tree@V?$_Tmap_traits@V?$basic_string@_WU?$char_traits@_W@std@@V?$allocator@_W@2@@std@@P6AXXZU?$less@V?$basic_string@_WU?$char_traits@_W@std@@V?$allocator@_W@2@@std@@@2@V?$allocator@U?$pair@$$CBV?$basic_string@_WU?$char_traits@_W@std@@V?$allocator@_W@2@@std@@P6AXXZ@std@@@2@$0A@@std@@@std@@IEBAAEAPEAU_Node@?$_Tree_nod@V?$_Tmap_traits@V?$basic_string@_WU?$char_traits@_W@std@@V?$allocator@_W@2@@std@@P6AXXZU?$less@V?$basic_string@_WU?$char_traits@_W@std@@V?$allocator@_W@2@@std@@@2@V?$allocator@U?$pair@$$CBV?$basic_string@_WU?$char_traits@_W@std@@V?$allocator@_W@2@@std@@P6AXXZ@std@@@2@$0A@@std@@@2@XZ 00000001800048b0 f i CommandManager.obj
 0001:000038f0       ?_Color@?$_Tree_val@V?$_Tmap_traits@V?$basic_string@_WU?$char_traits@_W@std@@V?$allocator@_W@2@@std@@P6AXXZU?$less@V?$basic_string@_WU?$char_traits@_W@std@@V?$allocator@_W@2@@std@@@2@V?$allocator@U?$pair@$$CBV?$basic_string@_WU?$char_traits@_W@std@@V?$allocator@_W@2@@std@@P6AXXZ@std@@@2@$0A@@std@@@std@@SAAEADPEAU_Node@?$_Tree_nod@V?$_Tmap_traits@V?$basic_string@_WU?$char_traits@_W@std@@V?$allocator@_W@2@@std@@P6AXXZU?$less@V?$basic_string@_WU?$char_traits@_W@std@@V?$allocator@_W@2@@std@@@2@V?$allocator@U?$pair@$$CBV?$basic_string@_WU?$char_traits@_W@std@@V?$allocator@_W@2@@std@@P6AXXZ@std@@@2@$0A@@std@@@2@@Z 00000001800048f0 f i CommandManager.obj
 0001:00003910       ?_Isnil@?$_Tree_val@V?$_Tmap_traits@V?$basic_string@_WU?$char_traits@_W@std@@V?$allocator@_W@2@@std@@P6AXXZU?$less@V?$basic_string@_WU?$char_traits@_W@std@@V?$allocator@_W@2@@std@@@2@V?$allocator@U?$pair@$$CBV?$basic_string@_WU?$char_traits@_W@std@@V?$allocator@_W@2@@std@@P6AXXZ@std@@@2@$0A@@std@@@std@@SAAEADPEAU_Node@?$_Tree_nod@V?$_Tmap_traits@V?$basic_string@_WU?$char_traits@_W@std@@V?$allocator@_W@2@@std@@P6AXXZU?$less@V?$basic_string@_WU?$char_traits@_W@std@@V?$allocator@_W@2@@std@@@2@V?$allocator@U?$pair@$$CBV?$basic_string@_WU?$char_traits@_W@std@@V?$allocator@_W@2@@std@@P6AXXZ@std@@@2@$0A@@std@@@2@@Z 0000000180004910 f i CommandManager.obj
 0001:00003930       ?_Parent@?$_Tree_val@V?$_Tmap_traits@V?$basic_string@_WU?$char_traits@_W@std@@V?$allocator@_W@2@@std@@P6AXXZU?$less@V?$basic_string@_WU?$char_traits@_W@std@@V?$allocator@_W@2@@std@@@2@V?$allocator@U?$pair@$$CBV?$basic_string@_WU?$char_traits@_W@std@@V?$allocator@_W@2@@std@@P6AXXZ@std@@@2@$0A@@std@@@std@@SAAEAPEAU_Node@?$_Tree_nod@V?$_Tmap_traits@V?$basic_string@_WU?$char_traits@_W@std@@V?$allocator@_W@2@@std@@P6AXXZU?$less@V?$basic_string@_WU?$char_traits@_W@std@@V?$allocator@_W@2@@std@@@2@V?$allocator@U?$pair@$$CBV?$basic_string@_WU?$char_traits@_W@std@@V?$allocator@_W@2@@std@@P6AXXZ@std@@@2@$0A@@std@@@2@PEAU342@@Z 0000000180004930 f i CommandManager.obj
 0001:00003950       ?_Right@?$_Tree_val@V?$_Tmap_traits@V?$basic_string@_WU?$char_traits@_W@std@@V?$allocator@_W@2@@std@@P6AXXZU?$less@V?$basic_string@_WU?$char_traits@_W@std@@V?$allocator@_W@2@@std@@@2@V?$allocator@U?$pair@$$CBV?$basic_string@_WU?$char_traits@_W@std@@V?$allocator@_W@2@@std@@P6AXXZ@std@@@2@$0A@@std@@@std@@SAAEAPEAU_Node@?$_Tree_nod@V?$_Tmap_traits@V?$basic_string@_WU?$char_traits@_W@std@@V?$allocator@_W@2@@std@@P6AXXZU?$less@V?$basic_string@_WU?$char_traits@_W@std@@V?$allocator@_W@2@@std@@@2@V?$allocator@U?$pair@$$CBV?$basic_string@_WU?$char_traits@_W@std@@V?$allocator@_W@2@@std@@P6AXXZ@std@@@2@$0A@@std@@@2@PEAU342@@Z 0000000180004950 f i CommandManager.obj
 0001:00003970       ?_Min@?$_Tree_val@V?$_Tmap_traits@V?$basic_string@_WU?$char_traits@_W@std@@V?$allocator@_W@2@@std@@P6AXXZU?$less@V?$basic_string@_WU?$char_traits@_W@std@@V?$allocator@_W@2@@std@@@2@V?$allocator@U?$pair@$$CBV?$basic_string@_WU?$char_traits@_W@std@@V?$allocator@_W@2@@std@@P6AXXZ@std@@@2@$0A@@std@@@std@@SAPEAU_Node@?$_Tree_nod@V?$_Tmap_traits@V?$basic_string@_WU?$char_traits@_W@std@@V?$allocator@_W@2@@std@@P6AXXZU?$less@V?$basic_string@_WU?$char_traits@_W@std@@V?$allocator@_W@2@@std@@@2@V?$allocator@U?$pair@$$CBV?$basic_string@_WU?$char_traits@_W@std@@V?$allocator@_W@2@@std@@P6AXXZ@std@@@2@$0A@@std@@@2@PEAU342@@Z 0000000180004970 f i CommandManager.obj
 0001:000039d0       ??0?$_Tree_nod@V?$_Tmap_traits@V?$basic_string@_WU?$char_traits@_W@std@@V?$allocator@_W@2@@std@@P6AXXZU?$less@V?$basic_string@_WU?$char_traits@_W@std@@V?$allocator@_W@2@@std@@@2@V?$allocator@U?$pair@$$CBV?$basic_string@_WU?$char_traits@_W@std@@V?$allocator@_W@2@@std@@P6AXXZ@std@@@2@$0A@@std@@@std@@QEAA@AEBU?$less@V?$basic_string@_WU?$char_traits@_W@std@@V?$allocator@_W@2@@std@@@1@V?$allocator@U?$pair@$$CBV?$basic_string@_WU?$char_traits@_W@std@@V?$allocator@_W@2@@std@@P6AXXZ@std@@@1@@Z 00000001800049d0 f i CommandManager.obj
 0001:00003a50       ?allocate@?$allocator@U_Node@?$_Tree_nod@V?$_Tmap_traits@V?$basic_string@_WU?$char_traits@_W@std@@V?$allocator@_W@2@@std@@P6AXXZU?$less@V?$basic_string@_WU?$char_traits@_W@std@@V?$allocator@_W@2@@std@@@2@V?$allocator@U?$pair@$$CBV?$basic_string@_WU?$char_traits@_W@std@@V?$allocator@_W@2@@std@@P6AXXZ@std@@@2@$0A@@std@@@std@@@std@@QEAAPEAU_Node@?$_Tree_nod@V?$_Tmap_traits@V?$basic_string@_WU?$char_traits@_W@std@@V?$allocator@_W@2@@std@@P6AXXZU?$less@V?$basic_string@_WU?$char_traits@_W@std@@V?$allocator@_W@2@@std@@@2@V?$allocator@U?$pair@$$CBV?$basic_string@_WU?$char_traits@_W@std@@V?$allocator@_W@2@@std@@P6AXXZ@std@@@2@$0A@@std@@@2@_K@Z 0000000180004a50 f i CommandManager.obj
 0001:00003a90       ?allocate@?$allocator@_W@std@@QEAAPEA_W_K@Z 0000000180004a90 f i CommandManager.obj
 0001:00003ad0       ?max_size@?$allocator@_W@std@@QEBA_KXZ 0000000180004ad0 f i CommandManager.obj
 0001:00003b30       ?_Erase@?$_Tree@V?$_Tmap_traits@V?$basic_string@_WU?$char_traits@_W@std@@V?$allocator@_W@2@@std@@P6AXXZU?$less@V?$basic_string@_WU?$char_traits@_W@std@@V?$allocator@_W@2@@std@@@2@V?$allocator@U?$pair@$$CBV?$basic_string@_WU?$char_traits@_W@std@@V?$allocator@_W@2@@std@@P6AXXZ@std@@@2@$0A@@std@@@std@@IEAAXPEAU_Node@?$_Tree_nod@V?$_Tmap_traits@V?$basic_string@_WU?$char_traits@_W@std@@V?$allocator@_W@2@@std@@P6AXXZU?$less@V?$basic_string@_WU?$char_traits@_W@std@@V?$allocator@_W@2@@std@@@2@V?$allocator@U?$pair@$$CBV?$basic_string@_WU?$char_traits@_W@std@@V?$allocator@_W@2@@std@@P6AXXZ@std@@@2@$0A@@std@@@2@@Z 0000000180004b30 f i CommandManager.obj
 0001:00003bf0       ?_Lrotate@?$_Tree@V?$_Tmap_traits@V?$basic_string@_WU?$char_traits@_W@std@@V?$allocator@_W@2@@std@@P6AXXZU?$less@V?$basic_string@_WU?$char_traits@_W@std@@V?$allocator@_W@2@@std@@@2@V?$allocator@U?$pair@$$CBV?$basic_string@_WU?$char_traits@_W@std@@V?$allocator@_W@2@@std@@P6AXXZ@std@@@2@$0A@@std@@@std@@IEAAXPEAU_Node@?$_Tree_nod@V?$_Tmap_traits@V?$basic_string@_WU?$char_traits@_W@std@@V?$allocator@_W@2@@std@@P6AXXZU?$less@V?$basic_string@_WU?$char_traits@_W@std@@V?$allocator@_W@2@@std@@@2@V?$allocator@U?$pair@$$CBV?$basic_string@_WU?$char_traits@_W@std@@V?$allocator@_W@2@@std@@P6AXXZ@std@@@2@$0A@@std@@@2@@Z 0000000180004bf0 f i CommandManager.obj
 0001:00003d50       ?_Rmost@?$_Tree@V?$_Tmap_traits@V?$basic_string@_WU?$char_traits@_W@std@@V?$allocator@_W@2@@std@@P6AXXZU?$less@V?$basic_string@_WU?$char_traits@_W@std@@V?$allocator@_W@2@@std@@@2@V?$allocator@U?$pair@$$CBV?$basic_string@_WU?$char_traits@_W@std@@V?$allocator@_W@2@@std@@P6AXXZ@std@@@2@$0A@@std@@@std@@IEBAAEAPEAU_Node@?$_Tree_nod@V?$_Tmap_traits@V?$basic_string@_WU?$char_traits@_W@std@@V?$allocator@_W@2@@std@@P6AXXZU?$less@V?$basic_string@_WU?$char_traits@_W@std@@V?$allocator@_W@2@@std@@@2@V?$allocator@U?$pair@$$CBV?$basic_string@_WU?$char_traits@_W@std@@V?$allocator@_W@2@@std@@P6AXXZ@std@@@2@$0A@@std@@@2@XZ 0000000180004d50 f i CommandManager.obj
 0001:00003d90       ?_Rrotate@?$_Tree@V?$_Tmap_traits@V?$basic_string@_WU?$char_traits@_W@std@@V?$allocator@_W@2@@std@@P6AXXZU?$less@V?$basic_string@_WU?$char_traits@_W@std@@V?$allocator@_W@2@@std@@@2@V?$allocator@U?$pair@$$CBV?$basic_string@_WU?$char_traits@_W@std@@V?$allocator@_W@2@@std@@P6AXXZ@std@@@2@$0A@@std@@@std@@IEAAXPEAU_Node@?$_Tree_nod@V?$_Tmap_traits@V?$basic_string@_WU?$char_traits@_W@std@@V?$allocator@_W@2@@std@@P6AXXZU?$less@V?$basic_string@_WU?$char_traits@_W@std@@V?$allocator@_W@2@@std@@@2@V?$allocator@U?$pair@$$CBV?$basic_string@_WU?$char_traits@_W@std@@V?$allocator@_W@2@@std@@P6AXXZ@std@@@2@$0A@@std@@@2@@Z 0000000180004d90 f i CommandManager.obj
 0001:00003ef0       ?_Max@?$_Tree_val@V?$_Tmap_traits@V?$basic_string@_WU?$char_traits@_W@std@@V?$allocator@_W@2@@std@@P6AXXZU?$less@V?$basic_string@_WU?$char_traits@_W@std@@V?$allocator@_W@2@@std@@@2@V?$allocator@U?$pair@$$CBV?$basic_string@_WU?$char_traits@_W@std@@V?$allocator@_W@2@@std@@P6AXXZ@std@@@2@$0A@@std@@@std@@SAPEAU_Node@?$_Tree_nod@V?$_Tmap_traits@V?$basic_string@_WU?$char_traits@_W@std@@V?$allocator@_W@2@@std@@P6AXXZU?$less@V?$basic_string@_WU?$char_traits@_W@std@@V?$allocator@_W@2@@std@@@2@V?$allocator@U?$pair@$$CBV?$basic_string@_WU?$char_traits@_W@std@@V?$allocator@_W@2@@std@@P6AXXZ@std@@@2@$0A@@std@@@2@PEAU342@@Z 0000000180004ef0 f i CommandManager.obj
 0001:00003f50       ??0?$_Tmap_traits@V?$basic_string@_WU?$char_traits@_W@std@@V?$allocator@_W@2@@std@@P6AXXZU?$less@V?$basic_string@_WU?$char_traits@_W@std@@V?$allocator@_W@2@@std@@@2@V?$allocator@U?$pair@$$CBV?$basic_string@_WU?$char_traits@_W@std@@V?$allocator@_W@2@@std@@P6AXXZ@std@@@2@$0A@@std@@QEAA@U?$less@V?$basic_string@_WU?$char_traits@_W@std@@V?$allocator@_W@2@@std@@@1@@Z 0000000180004f50 f i CommandManager.obj
 0001:00003f70       ??$insert@U?$pair@$$CBV?$basic_string@_WU?$char_traits@_W@std@@V?$allocator@_W@2@@std@@P6AXXZ@std@@@?$_Tree@V?$_Tmap_traits@V?$basic_string@_WU?$char_traits@_W@std@@V?$allocator@_W@2@@std@@P6AXXZU?$less@V?$basic_string@_WU?$char_traits@_W@std@@V?$allocator@_W@2@@std@@@2@V?$allocator@U?$pair@$$CBV?$basic_string@_WU?$char_traits@_W@std@@V?$allocator@_W@2@@std@@P6AXXZ@std@@@2@$0A@@std@@@std@@QEAA?AV?$_Tree_iterator@V?$_Tree_val@V?$_Tmap_traits@V?$basic_string@_WU?$char_traits@_W@std@@V?$allocator@_W@2@@std@@P6AXXZU?$less@V?$basic_string@_WU?$char_traits@_W@std@@V?$allocator@_W@2@@std@@@2@V?$allocator@U?$pair@$$CBV?$basic_string@_WU?$char_traits@_W@std@@V?$allocator@_W@2@@std@@P6AXXZ@std@@@2@$0A@@std@@@std@@@1@V?$_Tree_const_iterator@V?$_Tree_val@V?$_Tmap_traits@V?$basic_string@_WU?$char_traits@_W@std@@V?$allocator@_W@2@@std@@P6AXXZU?$less@V?$basic_string@_WU?$char_traits@_W@std@@V?$allocator@_W@2@@std@@@2@V?$allocator@U?$pair@$$CBV?$basic_string@_WU?$char_traits@_W@std@@V?$allocator@_W@2@@std@@P6AXXZ@std@@@2@$0A@@std@@@std@@@1@$$QEAU?$pair@$$CBV?$basic_string@_WU?$char_traits@_W@std@@V?$allocator@_W@2@@std@@P6AXXZ@1@@Z 0000000180004f70 f i CommandManager.obj
 0001:00003fe0       ??$?M_WU?$char_traits@_W@std@@V?$allocator@_W@1@@std@@YA_NAEBV?$basic_string@_WU?$char_traits@_W@std@@V?$allocator@_W@2@@0@0@Z 0000000180004fe0 f i CommandManager.obj
 0001:00004040       ??$swap@D@std@@YAXAEAD0@Z  0000000180005040 f i CommandManager.obj
 0001:000040c0       ??$_Dest_val@V?$allocator@U?$pair@$$CBV?$basic_string@_WU?$char_traits@_W@std@@V?$allocator@_W@2@@std@@P6AXXZ@std@@@std@@U?$pair@$$CBV?$basic_string@_WU?$char_traits@_W@std@@V?$allocator@_W@2@@std@@P6AXXZ@2@@std@@YAXAEAV?$allocator@U?$pair@$$CBV?$basic_string@_WU?$char_traits@_W@std@@V?$allocator@_W@2@@std@@P6AXXZ@std@@@0@PEAU?$pair@$$CBV?$basic_string@_WU?$char_traits@_W@std@@V?$allocator@_W@2@@std@@P6AXXZ@0@@Z 00000001800050c0 f i CommandManager.obj
 0001:00004100       ??$_Allocate@U_Node@?$_Tree_nod@V?$_Tmap_traits@V?$basic_string@_WU?$char_traits@_W@std@@V?$allocator@_W@2@@std@@P6AXXZU?$less@V?$basic_string@_WU?$char_traits@_W@std@@V?$allocator@_W@2@@std@@@2@V?$allocator@U?$pair@$$CBV?$basic_string@_WU?$char_traits@_W@std@@V?$allocator@_W@2@@std@@P6AXXZ@std@@@2@$0A@@std@@@std@@@std@@YAPEAU_Node@?$_Tree_nod@V?$_Tmap_traits@V?$basic_string@_WU?$char_traits@_W@std@@V?$allocator@_W@2@@std@@P6AXXZU?$less@V?$basic_string@_WU?$char_traits@_W@std@@V?$allocator@_W@2@@std@@@2@V?$allocator@U?$pair@$$CBV?$basic_string@_WU?$char_traits@_W@std@@V?$allocator@_W@2@@std@@P6AXXZ@std@@@2@$0A@@std@@@0@_KPEAU120@@Z 0000000180005100 f i CommandManager.obj
 0001:000041a0       ??0bad_alloc@std@@QEAA@PEBD@Z 00000001800051a0 f i CommandManager.obj
 0001:000041f0       ??1bad_alloc@std@@UEAA@XZ  00000001800051f0 f i CommandManager.obj
 0001:00004230       ??_Ebad_alloc@std@@UEAAPEAXI@Z 0000000180005230 f i CommandManager.obj
 0001:00004230       ??_Gbad_alloc@std@@UEAAPEAXI@Z 0000000180005230 f i CommandManager.obj
 0001:00004280       ??$_Allocate@_W@std@@YAPEA_W_KPEA_W@Z 0000000180005280 f i CommandManager.obj
 0001:00004320       ??0bad_alloc@std@@QEAA@AEBV01@@Z 0000000180005320 f i CommandManager.obj
 0001:00004370       ?compare@?$basic_string@_WU?$char_traits@_W@std@@V?$allocator@_W@2@@std@@QEBAHAEBV12@@Z 0000000180005370 f i CommandManager.obj
 0001:000043e0       ?_Insert@?$_Tree@V?$_Tmap_traits@V?$basic_string@_WU?$char_traits@_W@std@@V?$allocator@_W@2@@std@@P6AXXZU?$less@V?$basic_string@_WU?$char_traits@_W@std@@V?$allocator@_W@2@@std@@@2@V?$allocator@U?$pair@$$CBV?$basic_string@_WU?$char_traits@_W@std@@V?$allocator@_W@2@@std@@P6AXXZ@std@@@2@$0A@@std@@@std@@QEAA?AV?$_Tree_iterator@V?$_Tree_val@V?$_Tmap_traits@V?$basic_string@_WU?$char_traits@_W@std@@V?$allocator@_W@2@@std@@P6AXXZU?$less@V?$basic_string@_WU?$char_traits@_W@std@@V?$allocator@_W@2@@std@@@2@V?$allocator@U?$pair@$$CBV?$basic_string@_WU?$char_traits@_W@std@@V?$allocator@_W@2@@std@@P6AXXZ@std@@@2@$0A@@std@@@std@@@2@V?$_Tree_const_iterator@V?$_Tree_val@V?$_Tmap_traits@V?$basic_string@_WU?$char_traits@_W@std@@V?$allocator@_W@2@@std@@P6AXXZU?$less@V?$basic_string@_WU?$char_traits@_W@std@@V?$allocator@_W@2@@std@@@2@V?$allocator@U?$pair@$$CBV?$basic_string@_WU?$char_traits@_W@std@@V?$allocator@_W@2@@std@@P6AXXZ@std@@@2@$0A@@std@@@std@@@2@PEAU_Node@?$_Tree_nod@V?$_Tmap_traits@V?$basic_string@_WU?$char_traits@_W@std@@V?$allocator@_W@2@@std@@P6AXXZU?$less@V?$basic_string@_WU?$char_traits@_W@std@@V?$allocator@_W@2@@std@@@2@V?$allocator@U?$pair@$$CBV?$basic_string@_WU?$char_traits@_W@std@@V?$allocator@_W@2@@std@@P6AXXZ@std@@@2@$0A@@std@@@2@@Z 00000001800053e0 f i CommandManager.obj
 0001:00004db0       ?destroy@?$allocator@U?$pair@$$CBV?$basic_string@_WU?$char_traits@_W@std@@V?$allocator@_W@2@@std@@P6AXXZ@std@@@std@@QEAAXPEAU?$pair@$$CBV?$basic_string@_WU?$char_traits@_W@std@@V?$allocator@_W@2@@std@@P6AXXZ@2@@Z 0000000180005db0 f i CommandManager.obj
 0001:00004df0       ?compare@?$basic_string@_WU?$char_traits@_W@std@@V?$allocator@_W@2@@std@@QEBAH_K0PEB_W0@Z 0000000180005df0 f i CommandManager.obj
 0001:00004f20       ?compare@?$char_traits@_W@std@@SAHPEB_W0_K@Z 0000000180005f20 f i CommandManager.obj
 0001:00004f70       wmemcmp                    0000000180005f70 f i CommandManager.obj
 0001:00005020       ?_Linsert@?$_Tree@V?$_Tmap_traits@V?$basic_string@_WU?$char_traits@_W@std@@V?$allocator@_W@2@@std@@P6AXXZU?$less@V?$basic_string@_WU?$char_traits@_W@std@@V?$allocator@_W@2@@std@@@2@V?$allocator@U?$pair@$$CBV?$basic_string@_WU?$char_traits@_W@std@@V?$allocator@_W@2@@std@@P6AXXZ@std@@@2@$0A@@std@@@std@@QEAA?AU?$pair@V?$_Tree_iterator@V?$_Tree_val@V?$_Tmap_traits@V?$basic_string@_WU?$char_traits@_W@std@@V?$allocator@_W@2@@std@@P6AXXZU?$less@V?$basic_string@_WU?$char_traits@_W@std@@V?$allocator@_W@2@@std@@@2@V?$allocator@U?$pair@$$CBV?$basic_string@_WU?$char_traits@_W@std@@V?$allocator@_W@2@@std@@P6AXXZ@std@@@2@$0A@@std@@@std@@@std@@_N@2@PEAU_Node@?$_Tree_nod@V?$_Tmap_traits@V?$basic_string@_WU?$char_traits@_W@std@@V?$allocator@_W@2@@std@@P6AXXZU?$less@V?$basic_string@_WU?$char_traits@_W@std@@V?$allocator@_W@2@@std@@@2@V?$allocator@U?$pair@$$CBV?$basic_string@_WU?$char_traits@_W@std@@V?$allocator@_W@2@@std@@P6AXXZ@std@@@2@$0A@@std@@@2@_N@Z 0000000180006020 f i CommandManager.obj
 0001:000053e0       ?_Insert@?$_Tree@V?$_Tmap_traits@V?$basic_string@_WU?$char_traits@_W@std@@V?$allocator@_W@2@@std@@P6AXXZU?$less@V?$basic_string@_WU?$char_traits@_W@std@@V?$allocator@_W@2@@std@@@2@V?$allocator@U?$pair@$$CBV?$basic_string@_WU?$char_traits@_W@std@@V?$allocator@_W@2@@std@@P6AXXZ@std@@@2@$0A@@std@@@std@@IEAA?AV?$_Tree_iterator@V?$_Tree_val@V?$_Tmap_traits@V?$basic_string@_WU?$char_traits@_W@std@@V?$allocator@_W@2@@std@@P6AXXZU?$less@V?$basic_string@_WU?$char_traits@_W@std@@V?$allocator@_W@2@@std@@@2@V?$allocator@U?$pair@$$CBV?$basic_string@_WU?$char_traits@_W@std@@V?$allocator@_W@2@@std@@P6AXXZ@std@@@2@$0A@@std@@@std@@@2@_NPEAU_Node@?$_Tree_nod@V?$_Tmap_traits@V?$basic_string@_WU?$char_traits@_W@std@@V?$allocator@_W@2@@std@@P6AXXZU?$less@V?$basic_string@_WU?$char_traits@_W@std@@V?$allocator@_W@2@@std@@@2@V?$allocator@U?$pair@$$CBV?$basic_string@_WU?$char_traits@_W@std@@V?$allocator@_W@2@@std@@P6AXXZ@std@@@2@$0A@@std@@@2@1@Z 00000001800063e0 f i CommandManager.obj
 0001:00005840       ??0?$_Tree_const_iterator@V?$_Tree_val@V?$_Tmap_traits@V?$basic_string@_WU?$char_traits@_W@std@@V?$allocator@_W@2@@std@@P6AXXZU?$less@V?$basic_string@_WU?$char_traits@_W@std@@V?$allocator@_W@2@@std@@@2@V?$allocator@U?$pair@$$CBV?$basic_string@_WU?$char_traits@_W@std@@V?$allocator@_W@2@@std@@P6AXXZ@std@@@2@$0A@@std@@@std@@@std@@QEAA@XZ 0000000180006840 f i CommandManager.obj
 0001:00005880       ??F?$_Tree_const_iterator@V?$_Tree_val@V?$_Tmap_traits@V?$basic_string@_WU?$char_traits@_W@std@@V?$allocator@_W@2@@std@@P6AXXZU?$less@V?$basic_string@_WU?$char_traits@_W@std@@V?$allocator@_W@2@@std@@@2@V?$allocator@U?$pair@$$CBV?$basic_string@_WU?$char_traits@_W@std@@V?$allocator@_W@2@@std@@P6AXXZ@std@@@2@$0A@@std@@@std@@@std@@QEAAAEAV01@XZ 0000000180006880 f i CommandManager.obj
 0001:000058c0       ?max_size@?$_Tree@V?$_Tmap_traits@V?$basic_string@_WU?$char_traits@_W@std@@V?$allocator@_W@2@@std@@P6AXXZU?$less@V?$basic_string@_WU?$char_traits@_W@std@@V?$allocator@_W@2@@std@@@2@V?$allocator@U?$pair@$$CBV?$basic_string@_WU?$char_traits@_W@std@@V?$allocator@_W@2@@std@@P6AXXZ@std@@@2@$0A@@std@@@std@@QEBA_KXZ 00000001800068c0 f i CommandManager.obj
 0001:00005900       ??F?$_Tree_unchecked_const_iterator@V?$_Tree_val@V?$_Tmap_traits@V?$basic_string@_WU?$char_traits@_W@std@@V?$allocator@_W@2@@std@@P6AXXZU?$less@V?$basic_string@_WU?$char_traits@_W@std@@V?$allocator@_W@2@@std@@@2@V?$allocator@U?$pair@$$CBV?$basic_string@_WU?$char_traits@_W@std@@V?$allocator@_W@2@@std@@P6AXXZ@std@@@2@$0A@@std@@@std@@U_Iterator_base0@2@@std@@QEAAAEAV01@XZ 0000000180006900 f i CommandManager.obj
 0001:00005a10       ??F?$_Tree_iterator@V?$_Tree_val@V?$_Tmap_traits@V?$basic_string@_WU?$char_traits@_W@std@@V?$allocator@_W@2@@std@@P6AXXZU?$less@V?$basic_string@_WU?$char_traits@_W@std@@V?$allocator@_W@2@@std@@@2@V?$allocator@U?$pair@$$CBV?$basic_string@_WU?$char_traits@_W@std@@V?$allocator@_W@2@@std@@P6AXXZ@std@@@2@$0A@@std@@@std@@@std@@QEAAAEAV01@XZ 0000000180006a10 f i CommandManager.obj
 0001:00005a50       ?max_size@?$allocator@U?$pair@$$CBV?$basic_string@_WU?$char_traits@_W@std@@V?$allocator@_W@2@@std@@P6AXXZ@std@@@std@@QEBA_KXZ 0000000180006a50 f i CommandManager.obj
 0001:00005ab0       ??0?$_Pair_base@V?$_Tree_iterator@V?$_Tree_val@V?$_Tmap_traits@V?$basic_string@_WU?$char_traits@_W@std@@V?$allocator@_W@2@@std@@P6AXXZU?$less@V?$basic_string@_WU?$char_traits@_W@std@@V?$allocator@_W@2@@std@@@2@V?$allocator@U?$pair@$$CBV?$basic_string@_WU?$char_traits@_W@std@@V?$allocator@_W@2@@std@@P6AXXZ@std@@@2@$0A@@std@@@std@@@std@@_N@std@@QEAA@$$QEAV?$_Tree_iterator@V?$_Tree_val@V?$_Tmap_traits@V?$basic_string@_WU?$char_traits@_W@std@@V?$allocator@_W@2@@std@@P6AXXZU?$less@V?$basic_string@_WU?$char_traits@_W@std@@V?$allocator@_W@2@@std@@@2@V?$allocator@U?$pair@$$CBV?$basic_string@_WU?$char_traits@_W@std@@V?$allocator@_W@2@@std@@P6AXXZ@std@@@2@$0A@@std@@@std@@@1@$$QEA_N@Z 0000000180006ab0 f i CommandManager.obj
 0001:00005ab0       ??$?0AEAV?$_Tree_iterator@V?$_Tree_val@V?$_Tmap_traits@V?$basic_string@_WU?$char_traits@_W@std@@V?$allocator@_W@2@@std@@P6AXXZU?$less@V?$basic_string@_WU?$char_traits@_W@std@@V?$allocator@_W@2@@std@@@2@V?$allocator@U?$pair@$$CBV?$basic_string@_WU?$char_traits@_W@std@@V?$allocator@_W@2@@std@@P6AXXZ@std@@@2@$0A@@std@@@std@@@std@@_N@?$_Pair_base@V?$_Tree_iterator@V?$_Tree_val@V?$_Tmap_traits@V?$basic_string@_WU?$char_traits@_W@std@@V?$allocator@_W@2@@std@@P6AXXZU?$less@V?$basic_string@_WU?$char_traits@_W@std@@V?$allocator@_W@2@@std@@@2@V?$allocator@U?$pair@$$CBV?$basic_string@_WU?$char_traits@_W@std@@V?$allocator@_W@2@@std@@P6AXXZ@std@@@2@$0A@@std@@@std@@@std@@_N@std@@QEAA@AEAV?$_Tree_iterator@V?$_Tree_val@V?$_Tmap_traits@V?$basic_string@_WU?$char_traits@_W@std@@V?$allocator@_W@2@@std@@P6AXXZU?$less@V?$basic_string@_WU?$char_traits@_W@std@@V?$allocator@_W@2@@std@@@2@V?$allocator@U?$pair@$$CBV?$basic_string@_WU?$char_traits@_W@std@@V?$allocator@_W@2@@std@@P6AXXZ@std@@@2@$0A@@std@@@std@@@1@$$QEA_N@Z 0000000180006ab0 f i CommandManager.obj
 0001:00005b10       ??$_Buynode@U?$pair@$$CBV?$basic_string@_WU?$char_traits@_W@std@@V?$allocator@_W@2@@std@@P6AXXZ@std@@@?$_Tree_val@V?$_Tmap_traits@V?$basic_string@_WU?$char_traits@_W@std@@V?$allocator@_W@2@@std@@P6AXXZU?$less@V?$basic_string@_WU?$char_traits@_W@std@@V?$allocator@_W@2@@std@@@2@V?$allocator@U?$pair@$$CBV?$basic_string@_WU?$char_traits@_W@std@@V?$allocator@_W@2@@std@@P6AXXZ@std@@@2@$0A@@std@@@std@@QEAAPEAU_Node@?$_Tree_nod@V?$_Tmap_traits@V?$basic_string@_WU?$char_traits@_W@std@@V?$allocator@_W@2@@std@@P6AXXZU?$less@V?$basic_string@_WU?$char_traits@_W@std@@V?$allocator@_W@2@@std@@@2@V?$allocator@U?$pair@$$CBV?$basic_string@_WU?$char_traits@_W@std@@V?$allocator@_W@2@@std@@P6AXXZ@std@@@2@$0A@@std@@@1@$$QEAU?$pair@$$CBV?$basic_string@_WU?$char_traits@_W@std@@V?$allocator@_W@2@@std@@P6AXXZ@1@@Z 0000000180006b10 f i CommandManager.obj
 0001:00005ba0       ??$_Destroy@U?$pair@$$CBV?$basic_string@_WU?$char_traits@_W@std@@V?$allocator@_W@2@@std@@P6AXXZ@std@@@std@@YAXPEAU?$pair@$$CBV?$basic_string@_WU?$char_traits@_W@std@@V?$allocator@_W@2@@std@@P6AXXZ@0@@Z 0000000180006ba0 f i CommandManager.obj
 0001:00005bd0       ??$?0AEAV?$_Tree_iterator@V?$_Tree_val@V?$_Tmap_traits@V?$basic_string@_WU?$char_traits@_W@std@@V?$allocator@_W@2@@std@@P6AXXZU?$less@V?$basic_string@_WU?$char_traits@_W@std@@V?$allocator@_W@2@@std@@@2@V?$allocator@U?$pair@$$CBV?$basic_string@_WU?$char_traits@_W@std@@V?$allocator@_W@2@@std@@P6AXXZ@std@@@2@$0A@@std@@@std@@@std@@_N@?$pair@V?$_Tree_iterator@V?$_Tree_val@V?$_Tmap_traits@V?$basic_string@_WU?$char_traits@_W@std@@V?$allocator@_W@2@@std@@P6AXXZU?$less@V?$basic_string@_WU?$char_traits@_W@std@@V?$allocator@_W@2@@std@@@2@V?$allocator@U?$pair@$$CBV?$basic_string@_WU?$char_traits@_W@std@@V?$allocator@_W@2@@std@@P6AXXZ@std@@@2@$0A@@std@@@std@@@std@@_N@std@@QEAA@AEAV?$_Tree_iterator@V?$_Tree_val@V?$_Tmap_traits@V?$basic_string@_WU?$char_traits@_W@std@@V?$allocator@_W@2@@std@@P6AXXZU?$less@V?$basic_string@_WU?$char_traits@_W@std@@V?$allocator@_W@2@@std@@@2@V?$allocator@U?$pair@$$CBV?$basic_string@_WU?$char_traits@_W@std@@V?$allocator@_W@2@@std@@P6AXXZ@std@@@2@$0A@@std@@@std@@@1@$$QEA_N@Z 0000000180006bd0 f i CommandManager.obj
 0001:00005bd0       ??0?$pair@V?$_Tree_iterator@V?$_Tree_val@V?$_Tmap_traits@V?$basic_string@_WU?$char_traits@_W@std@@V?$allocator@_W@2@@std@@P6AXXZU?$less@V?$basic_string@_WU?$char_traits@_W@std@@V?$allocator@_W@2@@std@@@2@V?$allocator@U?$pair@$$CBV?$basic_string@_WU?$char_traits@_W@std@@V?$allocator@_W@2@@std@@P6AXXZ@std@@@2@$0A@@std@@@std@@@std@@_N@std@@QEAA@$$QEAV?$_Tree_iterator@V?$_Tree_val@V?$_Tmap_traits@V?$basic_string@_WU?$char_traits@_W@std@@V?$allocator@_W@2@@std@@P6AXXZU?$less@V?$basic_string@_WU?$char_traits@_W@std@@V?$allocator@_W@2@@std@@@2@V?$allocator@U?$pair@$$CBV?$basic_string@_WU?$char_traits@_W@std@@V?$allocator@_W@2@@std@@P6AXXZ@std@@@2@$0A@@std@@@std@@@1@$$QEA_N@Z 0000000180006bd0 f i CommandManager.obj
 0001:00005c40       ??_G?$pair@$$CBV?$basic_string@_WU?$char_traits@_W@std@@V?$allocator@_W@2@@std@@P6AXXZ@std@@QEAAPEAXI@Z 0000000180006c40 f i CommandManager.obj
 0001:00005c90       ?_Buynode@?$_Tree_val@V?$_Tmap_traits@V?$basic_string@_WU?$char_traits@_W@std@@V?$allocator@_W@2@@std@@P6AXXZU?$less@V?$basic_string@_WU?$char_traits@_W@std@@V?$allocator@_W@2@@std@@@2@V?$allocator@U?$pair@$$CBV?$basic_string@_WU?$char_traits@_W@std@@V?$allocator@_W@2@@std@@P6AXXZ@std@@@2@$0A@@std@@@std@@QEAAPEAU_Node@?$_Tree_nod@V?$_Tmap_traits@V?$basic_string@_WU?$char_traits@_W@std@@V?$allocator@_W@2@@std@@P6AXXZU?$less@V?$basic_string@_WU?$char_traits@_W@std@@V?$allocator@_W@2@@std@@@2@V?$allocator@U?$pair@$$CBV?$basic_string@_WU?$char_traits@_W@std@@V?$allocator@_W@2@@std@@P6AXXZ@std@@@2@$0A@@std@@@2@XZ 0000000180006c90 f i CommandManager.obj
 0001:00005d30       ??$_Cons_val@V?$allocator@U?$pair@$$CBV?$basic_string@_WU?$char_traits@_W@std@@V?$allocator@_W@2@@std@@P6AXXZ@std@@@std@@U?$pair@$$CBV?$basic_string@_WU?$char_traits@_W@std@@V?$allocator@_W@2@@std@@P6AXXZ@2@U32@@std@@YAXAEAV?$allocator@U?$pair@$$CBV?$basic_string@_WU?$char_traits@_W@std@@V?$allocator@_W@2@@std@@P6AXXZ@std@@@0@PEAU?$pair@$$CBV?$basic_string@_WU?$char_traits@_W@std@@V?$allocator@_W@2@@std@@P6AXXZ@0@$$QEAU20@@Z 0000000180006d30 f i CommandManager.obj
 0001:00005d80       ?construct@?$allocator@U?$pair@$$CBV?$basic_string@_WU?$char_traits@_W@std@@V?$allocator@_W@2@@std@@P6AXXZ@std@@@std@@QEAAXPEAU?$pair@$$CBV?$basic_string@_WU?$char_traits@_W@std@@V?$allocator@_W@2@@std@@P6AXXZ@2@$$QEAU32@@Z 0000000180006d80 f i CommandManager.obj
 0001:00005e10       ??2@YAPEAX_KPEAX@Z         0000000180006e10 f i CommandManager.obj
 0001:00005e30       ??$?0$$CBV?$basic_string@_WU?$char_traits@_W@std@@V?$allocator@_W@2@@std@@P6AXXZ@?$pair@$$CBV?$basic_string@_WU?$char_traits@_W@std@@V?$allocator@_W@2@@std@@P6AXXZ@std@@QEAA@$$QEAU01@@Z 0000000180006e30 f i CommandManager.obj
 0001:00005ea0       ??0?$_Pair_base@$$CBV?$basic_string@_WU?$char_traits@_W@std@@V?$allocator@_W@2@@std@@P6AXXZ@std@@QEAA@$$QEBV?$basic_string@_WU?$char_traits@_W@std@@V?$allocator@_W@2@@1@$$QEAP6AXXZ@Z 0000000180006ea0 f i CommandManager.obj
 0001:00005f10       ??0LineCategoryItemData@config@assistent@guch@com@@QEAA@AEBV?$basic_string@_WU?$char_traits@_W@std@@V?$allocator@_W@2@@std@@00000000@Z 0000000180006f10 f   LineCategoryItemData.obj
 0001:00006030       ?Instance@LineConfigDataManager@config@assistent@guch@com@@SAPEAV12345@XZ 0000000180007030 f   LineConfigDataManager.obj
 0001:000060b0       ??0LineConfigDataManager@config@assistent@guch@com@@QEAA@XZ 00000001800070b0 f   LineConfigDataManager.obj
 0001:00006460       ?GetHead@CSimpleList@@QEBAPEAXXZ 0000000180007460 f   MenuManager.obj
 0001:00006460       ?GetData@LineConfigDataManager@config@assistent@guch@com@@QEBAQEAV?$vector@PEAULineCategoryItemData@config@assistent@guch@com@@V?$allocator@PEAULineCategoryItemData@config@assistent@guch@com@@@std@@@std@@XZ 0000000180007460 f   LineConfigDataManager.obj
 0001:00006460       ?_Mynode@?$_Tree_unchecked_const_iterator@V?$_Tree_val@V?$_Tmap_traits@V?$basic_string@_WU?$char_traits@_W@std@@V?$allocator@_W@2@@std@@P6AXXZU?$less@V?$basic_string@_WU?$char_traits@_W@std@@V?$allocator@_W@2@@std@@@2@V?$allocator@U?$pair@$$CBV?$basic_string@_WU?$char_traits@_W@std@@V?$allocator@_W@2@@std@@P6AXXZ@std@@@2@$0A@@std@@@std@@U_Iterator_base0@2@@std@@QEBAPEAU_Node@?$_Tree_nod@V?$_Tmap_traits@V?$basic_string@_WU?$char_traits@_W@std@@V?$allocator@_W@2@@std@@P6AXXZU?$less@V?$basic_string@_WU?$char_traits@_W@std@@V?$allocator@_W@2@@std@@@2@V?$allocator@U?$pair@$$CBV?$basic_string@_WU?$char_traits@_W@std@@V?$allocator@_W@2@@std@@P6AXXZ@std@@@2@$0A@@std@@@2@XZ 0000000180007460 f   CommandManager.obj
 0001:00006470       ??0?$vector@PEAULineCategoryItemData@config@assistent@guch@com@@V?$allocator@PEAULineCategoryItemData@config@assistent@guch@com@@@std@@@std@@QEAA@XZ 0000000180007470 f i LineConfigDataManager.obj
 0001:000064c0       ?push_back@?$vector@PEAULineCategoryItemData@config@assistent@guch@com@@V?$allocator@PEAULineCategoryItemData@config@assistent@guch@com@@@std@@@std@@QEAAXAEBQEAULineCategoryItemData@config@assistent@guch@com@@@Z 00000001800074c0 f i LineConfigDataManager.obj
 0001:00006620       ?_Inside@?$vector@PEAULineCategoryItemData@config@assistent@guch@com@@V?$allocator@PEAULineCategoryItemData@config@assistent@guch@com@@@std@@@std@@IEBA_NPEBQEAULineCategoryItemData@config@assistent@guch@com@@@Z 0000000180007620 f i LineConfigDataManager.obj
 0001:00006690       ?_Reserve@?$vector@PEAULineCategoryItemData@config@assistent@guch@com@@V?$allocator@PEAULineCategoryItemData@config@assistent@guch@com@@@std@@@std@@IEAAX_K@Z 0000000180007690 f i LineConfigDataManager.obj
 0001:00006730       ?_Orphan_range@?$vector@PEAULineCategoryItemData@config@assistent@guch@com@@V?$allocator@PEAULineCategoryItemData@config@assistent@guch@com@@@std@@@std@@IEBAXPEAPEAULineCategoryItemData@config@assistent@guch@com@@0@Z 0000000180007730 f i LineConfigDataManager.obj
 0001:00006750       ??0?$_Vector_val@PEAULineCategoryItemData@config@assistent@guch@com@@V?$allocator@PEAULineCategoryItemData@config@assistent@guch@com@@@std@@@std@@QEAA@V?$allocator@PEAULineCategoryItemData@config@assistent@guch@com@@@1@@Z 0000000180007750 f i LineConfigDataManager.obj
 0001:000067c0       ?reserve@?$vector@PEAULineCategoryItemData@config@assistent@guch@com@@V?$allocator@PEAULineCategoryItemData@config@assistent@guch@com@@@std@@@std@@QEAAX_K@Z 00000001800077c0 f i LineConfigDataManager.obj
 0001:00006910       ?capacity@?$vector@PEAULineCategoryItemData@config@assistent@guch@com@@V?$allocator@PEAULineCategoryItemData@config@assistent@guch@com@@@std@@@std@@QEBA_KXZ 0000000180007910 f i LineConfigDataManager.obj
 0001:00006930       ?size@?$vector@PEAULineCategoryItemData@config@assistent@guch@com@@V?$allocator@PEAULineCategoryItemData@config@assistent@guch@com@@@std@@@std@@QEBA_KXZ 0000000180007930 f i LineConfigDataManager.obj
 0001:00006950       ?max_size@?$vector@PEAULineCategoryItemData@config@assistent@guch@com@@V?$allocator@PEAULineCategoryItemData@config@assistent@guch@com@@@std@@@std@@QEBA_KXZ 0000000180007950 f i LineConfigDataManager.obj
 0001:00006990       ?_Grow_to@?$vector@PEAULineCategoryItemData@config@assistent@guch@com@@V?$allocator@PEAULineCategoryItemData@config@assistent@guch@com@@@std@@@std@@IEBA_K_K@Z 0000000180007990 f i LineConfigDataManager.obj
 0001:00006a50       ?_Xlen@?$vector@PEAULineCategoryItemData@config@assistent@guch@com@@V?$allocator@PEAULineCategoryItemData@config@assistent@guch@com@@@std@@@std@@IEBAXXZ 0000000180007a50 f i LineConfigDataManager.obj
 0001:00006a90       ?_Destroy@?$vector@PEAULineCategoryItemData@config@assistent@guch@com@@V?$allocator@PEAULineCategoryItemData@config@assistent@guch@com@@@std@@@std@@IEAAXPEAPEAULineCategoryItemData@config@assistent@guch@com@@0@Z 0000000180007a90 f i LineConfigDataManager.obj
 0001:00006ae0       ?allocate@?$allocator@PEAULineCategoryItemData@config@assistent@guch@com@@@std@@QEAAPEAPEAULineCategoryItemData@config@assistent@guch@com@@_K@Z 0000000180007ae0 f i LineConfigDataManager.obj
 0001:00006b20       ?max_size@?$allocator@PEAULineCategoryItemData@config@assistent@guch@com@@@std@@QEBA_KXZ 0000000180007b20 f i LineConfigDataManager.obj
 0001:00006b80       ??$_Cons_val@V?$allocator@PEAULineCategoryItemData@config@assistent@guch@com@@@std@@PEAULineCategoryItemData@config@assistent@guch@com@@AEAPEAU34567@@std@@YAXAEAV?$allocator@PEAULineCategoryItemData@config@assistent@guch@com@@@0@PEAPEAULineCategoryItemData@config@assistent@guch@com@@AEAPEAU23456@@Z 0000000180007b80 f i LineConfigDataManager.obj
 0001:00006bd0       ??$_Cons_val@V?$allocator@PEAULineCategoryItemData@config@assistent@guch@com@@@std@@PEAULineCategoryItemData@config@assistent@guch@com@@AEBQEAU34567@@std@@YAXAEAV?$allocator@PEAULineCategoryItemData@config@assistent@guch@com@@@0@PEAPEAULineCategoryItemData@config@assistent@guch@com@@AEBQEAU23456@@Z 0000000180007bd0 f i LineConfigDataManager.obj
 0001:00006c20       ??$_Umove@PEAPEAULineCategoryItemData@config@assistent@guch@com@@@?$vector@PEAULineCategoryItemData@config@assistent@guch@com@@V?$allocator@PEAULineCategoryItemData@config@assistent@guch@com@@@std@@@std@@IEAAPEAPEAULineCategoryItemData@config@assistent@guch@com@@PEAPEAU23456@00@Z 0000000180007c20 f i LineConfigDataManager.obj
 0001:00006c80       ??$_Destroy_range@V?$allocator@PEAULineCategoryItemData@config@assistent@guch@com@@@std@@@std@@YAXPEAPEAULineCategoryItemData@config@assistent@guch@com@@0AEAV?$allocator@PEAULineCategoryItemData@config@assistent@guch@com@@@0@@Z 0000000180007c80 f i LineConfigDataManager.obj
 0001:00006ce0       ??$_Allocate@PEAULineCategoryItemData@config@assistent@guch@com@@@std@@YAPEAPEAULineCategoryItemData@config@assistent@guch@com@@_KPEAPEAU12345@@Z 0000000180007ce0 f i LineConfigDataManager.obj
 0001:00006d80       ?construct@?$allocator@PEAULineCategoryItemData@config@assistent@guch@com@@@std@@QEAAXPEAPEAULineCategoryItemData@config@assistent@guch@com@@AEBQEAU34567@@Z 0000000180007d80 f i LineConfigDataManager.obj
 0001:00006dc0       ??$construct@AEAPEAULineCategoryItemData@config@assistent@guch@com@@@?$allocator@PEAULineCategoryItemData@config@assistent@guch@com@@@std@@QEAAXPEAPEAULineCategoryItemData@config@assistent@guch@com@@AEAPEAU23456@@Z 0000000180007dc0 f i LineConfigDataManager.obj
 0001:00006e50       ??0?$allocator@PEAULineCategoryItemData@config@assistent@guch@com@@@std@@QEAA@XZ 0000000180007e50 f i LineConfigDataManager.obj
 0001:00006e50       ??$move@AEBV?$basic_string@_WU?$char_traits@_W@std@@V?$allocator@_W@2@@std@@@std@@YA$$QEBV?$basic_string@_WU?$char_traits@_W@std@@V?$allocator@_W@2@@0@AEBV10@@Z 0000000180007e50 f i CommandManager.obj
 0001:00006e50       ??0?$allocator@U?$pair@$$CBV?$basic_string@_WU?$char_traits@_W@std@@V?$allocator@_W@2@@std@@P6AXXZ@std@@@std@@QEAA@XZ 0000000180007e50 f i CommandManager.obj
 0001:00006e50       ??$forward@AEBQEAULineCategoryItemData@config@assistent@guch@com@@@std@@YAAEBQEAULineCategoryItemData@config@assistent@guch@com@@AEBQEAU12345@@Z 0000000180007e50 f i LineConfigDataManager.obj
 0001:00006e50       ?_Left@?$_Tree_val@V?$_Tmap_traits@V?$basic_string@_WU?$char_traits@_W@std@@V?$allocator@_W@2@@std@@P6AXXZU?$less@V?$basic_string@_WU?$char_traits@_W@std@@V?$allocator@_W@2@@std@@@2@V?$allocator@U?$pair@$$CBV?$basic_string@_WU?$char_traits@_W@std@@V?$allocator@_W@2@@std@@P6AXXZ@std@@@2@$0A@@std@@@std@@SAAEAPEAU_Node@?$_Tree_nod@V?$_Tmap_traits@V?$basic_string@_WU?$char_traits@_W@std@@V?$allocator@_W@2@@std@@P6AXXZU?$less@V?$basic_string@_WU?$char_traits@_W@std@@V?$allocator@_W@2@@std@@@2@V?$allocator@U?$pair@$$CBV?$basic_string@_WU?$char_traits@_W@std@@V?$allocator@_W@2@@std@@P6AXXZ@std@@@2@$0A@@std@@@2@PEAU342@@Z 0000000180007e50 f i CommandManager.obj
 0001:00006e50       ??$forward@$$CBV?$basic_string@_WU?$char_traits@_W@std@@V?$allocator@_W@2@@std@@@std@@YA$$QEBV?$basic_string@_WU?$char_traits@_W@std@@V?$allocator@_W@2@@0@AEBV10@@Z 0000000180007e50 f i CommandManager.obj
 0001:00006e50       ??0CObject@@IEAA@XZ        0000000180007e50 f i MenuLMAMain.obj
 0001:00006e50       ??$move@AEAP6AXXZ@std@@YA$$QEAP6AXXZAEAP6AXXZ@Z 0000000180007e50 f i CommandManager.obj
 0001:00006e50       ??$forward@U?$pair@$$CBV?$basic_string@_WU?$char_traits@_W@std@@V?$allocator@_W@2@@std@@P6AXXZ@std@@@std@@YA$$QEAU?$pair@$$CBV?$basic_string@_WU?$char_traits@_W@std@@V?$allocator@_W@2@@std@@P6AXXZ@0@AEAU10@@Z 0000000180007e50 f i CommandManager.obj
 0001:00006e50       ??$forward@P6AXXZ@std@@YA$$QEAP6AXXZAEAP6AXXZ@Z 0000000180007e50 f i CommandManager.obj
 0001:00006e50       ??$forward@AEAPEAULineCategoryItemData@config@assistent@guch@com@@@std@@YAAEAPEAULineCategoryItemData@config@assistent@guch@com@@AEAPEAU12345@@Z 0000000180007e50 f i LineConfigDataManager.obj
 0001:00006e50       ??0?$allocator@D@std@@QEAA@XZ 0000000180007e50 f i LineConfigDataManager.obj
 0001:00006e50       ??$forward@AEAV?$_Tree_iterator@V?$_Tree_val@V?$_Tmap_traits@V?$basic_string@_WU?$char_traits@_W@std@@V?$allocator@_W@2@@std@@P6AXXZU?$less@V?$basic_string@_WU?$char_traits@_W@std@@V?$allocator@_W@2@@std@@@2@V?$allocator@U?$pair@$$CBV?$basic_string@_WU?$char_traits@_W@std@@V?$allocator@_W@2@@std@@P6AXXZ@std@@@2@$0A@@std@@@std@@@std@@@std@@YAAEAV?$_Tree_iterator@V?$_Tree_val@V?$_Tmap_traits@V?$basic_string@_WU?$char_traits@_W@std@@V?$allocator@_W@2@@std@@P6AXXZU?$less@V?$basic_string@_WU?$char_traits@_W@std@@V?$allocator@_W@2@@std@@@2@V?$allocator@U?$pair@$$CBV?$basic_string@_WU?$char_traits@_W@std@@V?$allocator@_W@2@@std@@P6AXXZ@std@@@2@$0A@@std@@@std@@@0@AEAV10@@Z 0000000180007e50 f i CommandManager.obj
 0001:00006e50       ??$move@AEA_N@std@@YA$$QEA_NAEA_N@Z 0000000180007e50 f i CommandManager.obj
 0001:00006e50       ??0?$allocator@_W@std@@QEAA@XZ 0000000180007e50 f i CommandManager.obj
 0001:00006e50       ??$addressof@U?$pair@$$CBV?$basic_string@_WU?$char_traits@_W@std@@V?$allocator@_W@2@@std@@P6AXXZ@std@@@std@@YAPEAU?$pair@$$CBV?$basic_string@_WU?$char_traits@_W@std@@V?$allocator@_W@2@@std@@P6AXXZ@0@AEAU10@@Z 0000000180007e50 f i CommandManager.obj
 0001:00006e50       ??$addressof@QEAULineCategoryItemData@config@assistent@guch@com@@@std@@YAPEBQEAULineCategoryItemData@config@assistent@guch@com@@AEBQEAU12345@@Z 0000000180007e50 f i LineConfigDataManager.obj
 0001:00006e50       ??$_Move@AEAD@std@@YA$$QEADAEAD@Z 0000000180007e50 f i CommandManager.obj
 0001:00006e50       ??$_Kfn@$$CBV?$basic_string@_WU?$char_traits@_W@std@@V?$allocator@_W@2@@std@@P6AXXZ@?$_Tmap_traits@V?$basic_string@_WU?$char_traits@_W@std@@V?$allocator@_W@2@@std@@P6AXXZU?$less@V?$basic_string@_WU?$char_traits@_W@std@@V?$allocator@_W@2@@std@@@2@V?$allocator@U?$pair@$$CBV?$basic_string@_WU?$char_traits@_W@std@@V?$allocator@_W@2@@std@@P6AXXZ@std@@@2@$0A@@std@@SAAEBV?$basic_string@_WU?$char_traits@_W@std@@V?$allocator@_W@2@@1@AEBU?$pair@$$CBV?$basic_string@_WU?$char_traits@_W@std@@V?$allocator@_W@2@@std@@P6AXXZ@1@@Z 0000000180007e50 f i CommandManager.obj
 0001:00006e50       ??$forward@_N@std@@YA$$QEA_NAEA_N@Z 0000000180007e50 f i CommandManager.obj
 0001:00006e50       ??$move@AEAV?$_Tree_iterator@V?$_Tree_val@V?$_Tmap_traits@V?$basic_string@_WU?$char_traits@_W@std@@V?$allocator@_W@2@@std@@P6AXXZU?$less@V?$basic_string@_WU?$char_traits@_W@std@@V?$allocator@_W@2@@std@@@2@V?$allocator@U?$pair@$$CBV?$basic_string@_WU?$char_traits@_W@std@@V?$allocator@_W@2@@std@@P6AXXZ@std@@@2@$0A@@std@@@std@@@std@@@std@@YA$$QEAV?$_Tree_iterator@V?$_Tree_val@V?$_Tmap_traits@V?$basic_string@_WU?$char_traits@_W@std@@V?$allocator@_W@2@@std@@P6AXXZU?$less@V?$basic_string@_WU?$char_traits@_W@std@@V?$allocator@_W@2@@std@@@2@V?$allocator@U?$pair@$$CBV?$basic_string@_WU?$char_traits@_W@std@@V?$allocator@_W@2@@std@@P6AXXZ@std@@@2@$0A@@std@@@std@@@0@AEAV10@@Z 0000000180007e50 f i CommandManager.obj
 0001:00006e60       ??$_Uninitialized_move@PEAPEAULineCategoryItemData@config@assistent@guch@com@@PEAPEAU12345@V?$allocator@PEAULineCategoryItemData@config@assistent@guch@com@@@std@@@std@@YAPEAPEAULineCategoryItemData@config@assistent@guch@com@@PEAPEAU12345@00AEAV?$allocator@PEAULineCategoryItemData@config@assistent@guch@com@@@0@@Z 0000000180007e60 f i LineConfigDataManager.obj
 0001:00006ee0       ??$_Ptr_cat@PEAULineCategoryItemData@config@assistent@guch@com@@PEAU12345@@std@@YA?AU_Scalar_ptr_iterator_tag@0@PEAPEAULineCategoryItemData@config@assistent@guch@com@@0@Z 0000000180007ee0 f i LineConfigDataManager.obj
 0001:00006f30       ??$_Destroy_range@V?$allocator@PEAULineCategoryItemData@config@assistent@guch@com@@@std@@@std@@YAXPEAPEAULineCategoryItemData@config@assistent@guch@com@@0AEAV?$allocator@PEAULineCategoryItemData@config@assistent@guch@com@@@0@U_Scalar_ptr_iterator_tag@0@@Z 0000000180007f30 f i LineConfigDataManager.obj
 0001:00006f50       ??$_Construct@PEAULineCategoryItemData@config@assistent@guch@com@@AEBQEAU12345@@std@@YAXPEAPEAULineCategoryItemData@config@assistent@guch@com@@AEBQEAU12345@@Z 0000000180007f50 f i LineConfigDataManager.obj
 0001:00006fe0       ??$_Val_type@PEAPEAULineCategoryItemData@config@assistent@guch@com@@@std@@YAPEAPEAULineCategoryItemData@config@assistent@guch@com@@PEAPEAU12345@@Z 0000000180007fe0 f i LineConfigDataManager.obj
 0001:00006ff0       ??$_Uninit_move@PEAULineCategoryItemData@config@assistent@guch@com@@PEAU12345@PEAU12345@@std@@YAPEAPEAULineCategoryItemData@config@assistent@guch@com@@PEAPEAU12345@00AEAV?$allocator@PEAULineCategoryItemData@config@assistent@guch@com@@@0@0U_Scalar_ptr_iterator_tag@0@@Z 0000000180007ff0 f i LineConfigDataManager.obj
 0001:00007070       ??0?$basic_string@DU?$char_traits@D@std@@V?$allocator@D@2@@std@@QEAA@PEBD@Z 0000000180008070 f i LineConfigDataManager.obj
 0001:000070f0       ?assign@?$basic_string@DU?$char_traits@D@std@@V?$allocator@D@2@@std@@QEAAAEAV12@PEBD@Z 00000001800080f0 f i LineConfigDataManager.obj
 0001:00007140       ?length@?$char_traits@D@std@@SA_KPEBD@Z 0000000180008140 f i LineConfigDataManager.obj
 0001:00007170       ?_Tidy@?$basic_string@DU?$char_traits@D@std@@V?$allocator@D@2@@std@@QEAAX_N_K@Z 0000000180008170 f i LineConfigDataManager.obj
 0001:00007220       ?copy@?$char_traits@D@std@@SAPEADPEADPEBD_K@Z 0000000180008220 f i LineConfigDataManager.obj
 0001:00007270       ??0?$_String_val@_WV?$allocator@_W@std@@@std@@QEAA@V?$allocator@_W@1@@Z 0000000180008270 f i CommandManager.obj
 0001:00007270       ??0?$_String_val@DV?$allocator@D@std@@@std@@QEAA@V?$allocator@D@1@@Z 0000000180008270 f i LineConfigDataManager.obj
 0001:000072c0       ?assign@?$basic_string@DU?$char_traits@D@std@@V?$allocator@D@2@@std@@QEAAAEAV12@PEBD_K@Z 00000001800082c0 f i LineConfigDataManager.obj
 0001:00007380       ?_Eos@?$basic_string@DU?$char_traits@D@std@@V?$allocator@D@2@@std@@QEAAX_K@Z 0000000180008380 f i LineConfigDataManager.obj
 0001:000073e0       ?assign@?$char_traits@D@std@@SAXAEADAEBD@Z 00000001800083e0 f i LineConfigDataManager.obj
 0001:00007400       ?_Myptr@?$basic_string@DU?$char_traits@D@std@@V?$allocator@D@2@@std@@QEAAPEADXZ 0000000180008400 f i LineConfigDataManager.obj
 0001:00007400       ?_Myptr@?$basic_string@DU?$char_traits@D@std@@V?$allocator@D@2@@std@@QEBAPEBDXZ 0000000180008400 f i LineConfigDataManager.obj
 0001:00007450       ?assign@?$basic_string@DU?$char_traits@D@std@@V?$allocator@D@2@@std@@QEAAAEAV12@AEBV12@_K1@Z 0000000180008450 f i LineConfigDataManager.obj
 0001:00007570       ?_Grow@?$basic_string@DU?$char_traits@D@std@@V?$allocator@D@2@@std@@QEAA_N_K_N@Z 0000000180008570 f i LineConfigDataManager.obj
 0001:00007670       ?_Inside@?$basic_string@DU?$char_traits@D@std@@V?$allocator@D@2@@std@@QEAA_NPEBD@Z 0000000180008670 f i LineConfigDataManager.obj
 0001:000076e0       ?_Xlen@?$basic_string@DU?$char_traits@D@std@@V?$allocator@D@2@@std@@QEBAXXZ 00000001800086e0 f i LineConfigDataManager.obj
 0001:000076e0       ?_Xlen@?$basic_string@_WU?$char_traits@_W@std@@V?$allocator@_W@2@@std@@QEBAXXZ 00000001800086e0 f i CommandManager.obj
 0001:00007720       ?erase@?$basic_string@DU?$char_traits@D@std@@V?$allocator@D@2@@std@@QEAAAEAV12@_K0@Z 0000000180008720 f i LineConfigDataManager.obj
 0001:00007830       ?move@?$char_traits@D@std@@SAPEADPEADPEBD_K@Z 0000000180008830 f i LineConfigDataManager.obj
 0001:00007880       ?max_size@?$basic_string@DU?$char_traits@D@std@@V?$allocator@D@2@@std@@QEBA_KXZ 0000000180008880 f i LineConfigDataManager.obj
 0001:000078e0       ?_Copy@?$basic_string@DU?$char_traits@D@std@@V?$allocator@D@2@@std@@QEAAX_K0@Z 00000001800088e0 f i LineConfigDataManager.obj
 0001:00007a70       ?allocate@?$allocator@D@std@@QEAAPEAD_K@Z 0000000180008a70 f i LineConfigDataManager.obj
 0001:00007ab0       ?max_size@?$allocator@D@std@@QEBA_KXZ 0000000180008ab0 f i LineConfigDataManager.obj
 0001:00007b00       ??$_Allocate@D@std@@YAPEAD_KPEAD@Z 0000000180008b00 f i LineConfigDataManager.obj
 0001:00007b90       ??1?$basic_string@DU?$char_traits@D@std@@V?$allocator@D@2@@std@@QEAA@XZ 0000000180008b90 f i LineConfigDataManager.obj
 0001:00007be0       ?GetRuntimeClass@LineConfigDialog@config@assistent@guch@com@@UEBAPEAUCRuntimeClass@@XZ 0000000180008be0 f   LineConfigDialog.obj
 0001:00007bf0       ??0LineConfigDialog@config@assistent@guch@com@@QEAA@PEAVCWnd@@@Z 0000000180008bf0 f   LineConfigDialog.obj
 0001:00007c70       ??_ELineConfigDialog@config@assistent@guch@com@@UEAAPEAXI@Z 0000000180008c70 f i LineConfigDialog.obj
 0001:00007c70       ??_GLineConfigDialog@config@assistent@guch@com@@UEAAPEAXI@Z 0000000180008c70 f i LineConfigDialog.obj
 0001:00007cc0       ??1LineConfigDialog@config@assistent@guch@com@@UEAA@XZ 0000000180008cc0 f   LineConfigDialog.obj
 0001:00007d20       ?DoDataExchange@LineConfigDialog@config@assistent@guch@com@@MEAAXPEAVCDataExchange@@@Z 0000000180008d20 f   LineConfigDialog.obj
 0001:00007d80       ?OnInitDialog@LineConfigDialog@config@assistent@guch@com@@MEAAHXZ 0000000180008d80 f   LineConfigDialog.obj
 0001:00007dd0       ?InitLineHeader@LineConfigDialog@config@assistent@guch@com@@IEAAHXZ 0000000180008dd0 f   LineConfigDialog.obj
 0001:00008110       ?InsertLine@LineConfigDialog@config@assistent@guch@com@@IEAAHHAEBV?$basic_string@_WU?$char_traits@_W@std@@V?$allocator@_W@2@@std@@00000000@Z 0000000180009110 f   LineConfigDialog.obj
 0001:00008310       ?InitLineData@LineConfigDialog@config@assistent@guch@com@@IEAAHXZ 0000000180009310 f   LineConfigDialog.obj
 0001:000084c0       ?GetMessageMap@LineConfigDialog@config@assistent@guch@com@@MEBAPEBUAFX_MSGMAP@@XZ 00000001800094c0 f   LineConfigDialog.obj
 0001:000084f0       ?GetThisMessageMap@LineConfigDialog@config@assistent@guch@com@@KAPEBUAFX_MSGMAP@@XZ 00000001800094f0 f   LineConfigDialog.obj
 0001:00008500       ?OnBnClickedButtonAdd@LineConfigDialog@config@assistent@guch@com@@IEAAXXZ 0000000180009500 f   LineConfigDialog.obj
 0001:00008580       ?begin@?$vector@PEAULineCategoryItemData@config@assistent@guch@com@@V?$allocator@PEAULineCategoryItemData@config@assistent@guch@com@@@std@@@std@@QEAA?AV?$_Vector_iterator@V?$_Vector_val@PEAULineCategoryItemData@config@assistent@guch@com@@V?$allocator@PEAULineCategoryItemData@config@assistent@guch@com@@@std@@@std@@@2@XZ 0000000180009580 f i LineConfigDialog.obj
 0001:000085d0       ?end@?$_Tree@V?$_Tmap_traits@V?$basic_string@_WU?$char_traits@_W@std@@V?$allocator@_W@2@@std@@P6AXXZU?$less@V?$basic_string@_WU?$char_traits@_W@std@@V?$allocator@_W@2@@std@@@2@V?$allocator@U?$pair@$$CBV?$basic_string@_WU?$char_traits@_W@std@@V?$allocator@_W@2@@std@@P6AXXZ@std@@@2@$0A@@std@@@std@@QEBA?AV?$_Tree_const_iterator@V?$_Tree_val@V?$_Tmap_traits@V?$basic_string@_WU?$char_traits@_W@std@@V?$allocator@_W@2@@std@@P6AXXZU?$less@V?$basic_string@_WU?$char_traits@_W@std@@V?$allocator@_W@2@@std@@@2@V?$allocator@U?$pair@$$CBV?$basic_string@_WU?$char_traits@_W@std@@V?$allocator@_W@2@@std@@P6AXXZ@std@@@2@$0A@@std@@@std@@@2@XZ 00000001800095d0 f i CommandManager.obj
 0001:000085d0       ?end@?$vector@PEAULineCategoryItemData@config@assistent@guch@com@@V?$allocator@PEAULineCategoryItemData@config@assistent@guch@com@@@std@@@std@@QEAA?AV?$_Vector_iterator@V?$_Vector_val@PEAULineCategoryItemData@config@assistent@guch@com@@V?$allocator@PEAULineCategoryItemData@config@assistent@guch@com@@@std@@@std@@@2@XZ 00000001800095d0 f i LineConfigDialog.obj
 0001:00008620       ??D?$_Vector_const_iterator@V?$_Vector_val@PEAULineCategoryItemData@config@assistent@guch@com@@V?$allocator@PEAULineCategoryItemData@config@assistent@guch@com@@@std@@@std@@@std@@QEBAAEBQEAULineCategoryItemData@config@assistent@guch@com@@XZ 0000000180009620 f i LineConfigDialog.obj
 0001:00008640       ??E?$_Vector_const_iterator@V?$_Vector_val@PEAULineCategoryItemData@config@assistent@guch@com@@V?$allocator@PEAULineCategoryItemData@config@assistent@guch@com@@@std@@@std@@@std@@QEAA?AV01@H@Z 0000000180009640 f i LineConfigDialog.obj
 0001:000086b0       ??9?$_Vector_const_iterator@V?$_Vector_val@PEAULineCategoryItemData@config@assistent@guch@com@@V?$allocator@PEAULineCategoryItemData@config@assistent@guch@com@@@std@@@std@@@std@@QEBA_NAEBV01@@Z 00000001800096b0 f i LineConfigDialog.obj
 0001:00008710       ??E?$_Vector_const_iterator@V?$_Vector_val@PEAULineCategoryItemData@config@assistent@guch@com@@V?$allocator@PEAULineCategoryItemData@config@assistent@guch@com@@@std@@@std@@@std@@QEAAAEAV01@XZ 0000000180009710 f i LineConfigDialog.obj
 0001:00008740       ??8?$_Vector_const_iterator@V?$_Vector_val@PEAULineCategoryItemData@config@assistent@guch@com@@V?$allocator@PEAULineCategoryItemData@config@assistent@guch@com@@@std@@@std@@@std@@QEBA_NAEBV01@@Z 0000000180009740 f i LineConfigDialog.obj
 0001:000087b0       ??0?$_Vector_iterator@V?$_Vector_val@PEAULineCategoryItemData@config@assistent@guch@com@@V?$allocator@PEAULineCategoryItemData@config@assistent@guch@com@@@std@@@std@@@std@@QEAA@PEAPEAULineCategoryItemData@config@assistent@guch@com@@PEBU_Container_base0@1@@Z 00000001800097b0 f i LineConfigDialog.obj
 0001:000087b0       ??0?$_Tree_const_iterator@V?$_Tree_val@V?$_Tmap_traits@V?$basic_string@_WU?$char_traits@_W@std@@V?$allocator@_W@2@@std@@P6AXXZU?$less@V?$basic_string@_WU?$char_traits@_W@std@@V?$allocator@_W@2@@std@@@2@V?$allocator@U?$pair@$$CBV?$basic_string@_WU?$char_traits@_W@std@@V?$allocator@_W@2@@std@@P6AXXZ@std@@@2@$0A@@std@@@std@@@std@@QEAA@PEAU_Node@?$_Tree_nod@V?$_Tmap_traits@V?$basic_string@_WU?$char_traits@_W@std@@V?$allocator@_W@2@@std@@P6AXXZU?$less@V?$basic_string@_WU?$char_traits@_W@std@@V?$allocator@_W@2@@std@@@2@V?$allocator@U?$pair@$$CBV?$basic_string@_WU?$char_traits@_W@std@@V?$allocator@_W@2@@std@@P6AXXZ@std@@@2@$0A@@std@@@1@PEBV?$_Tree_val@V?$_Tmap_traits@V?$basic_string@_WU?$char_traits@_W@std@@V?$allocator@_W@2@@std@@P6AXXZU?$less@V?$basic_string@_WU?$char_traits@_W@std@@V?$allocator@_W@2@@std@@@2@V?$allocator@U?$pair@$$CBV?$basic_string@_WU?$char_traits@_W@std@@V?$allocator@_W@2@@std@@P6AXXZ@std@@@2@$0A@@std@@@1@@Z 00000001800097b0 f i CommandManager.obj
 0001:00008800       ??0?$_Vector_const_iterator@V?$_Vector_val@PEAULineCategoryItemData@config@assistent@guch@com@@V?$allocator@PEAULineCategoryItemData@config@assistent@guch@com@@@std@@@std@@@std@@QEAA@PEAPEAULineCategoryItemData@config@assistent@guch@com@@PEBU_Container_base0@1@@Z 0000000180009800 f i LineConfigDialog.obj
 0001:00008800       ??0?$_Tree_unchecked_const_iterator@V?$_Tree_val@V?$_Tmap_traits@V?$basic_string@_WU?$char_traits@_W@std@@V?$allocator@_W@2@@std@@P6AXXZU?$less@V?$basic_string@_WU?$char_traits@_W@std@@V?$allocator@_W@2@@std@@@2@V?$allocator@U?$pair@$$CBV?$basic_string@_WU?$char_traits@_W@std@@V?$allocator@_W@2@@std@@P6AXXZ@std@@@2@$0A@@std@@@std@@U_Iterator_base0@2@@std@@QEAA@PEAU_Node@?$_Tree_nod@V?$_Tmap_traits@V?$basic_string@_WU?$char_traits@_W@std@@V?$allocator@_W@2@@std@@P6AXXZU?$less@V?$basic_string@_WU?$char_traits@_W@std@@V?$allocator@_W@2@@std@@@2@V?$allocator@U?$pair@$$CBV?$basic_string@_WU?$char_traits@_W@std@@V?$allocator@_W@2@@std@@P6AXXZ@std@@@2@$0A@@std@@@1@PEBV?$_Tree_val@V?$_Tmap_traits@V?$basic_string@_WU?$char_traits@_W@std@@V?$allocator@_W@2@@std@@P6AXXZU?$less@V?$basic_string@_WU?$char_traits@_W@std@@V?$allocator@_W@2@@std@@@2@V?$allocator@U?$pair@$$CBV?$basic_string@_WU?$char_traits@_W@std@@V?$allocator@_W@2@@std@@P6AXXZ@std@@@2@$0A@@std@@@1@@Z 0000000180009800 f i CommandManager.obj
 0001:00008850       DllMain                    0000000180009850 f   LineManageAssitant.obj
 0001:00008920       ??2CObject@@SAPEAX_K@Z     0000000180009920 f i LineManageAssitant.obj
 0001:00008950       ?AttachInstance@CAcExtensionModule@@QEAAHPEAUHINSTANCE__@@@Z 0000000180009950 f i LineManageAssitant.obj
 0001:00008a30       ?AfxGetResourceHandle@@YAPEAUHINSTANCE__@@XZ 0000000180009a30 f i LineManageAssitant.obj
 0001:00008a60       ?DetachInstance@CAcExtensionModule@@QEAAXXZ 0000000180009a60 f i LineManageAssitant.obj
 0001:00008ab0       acrxEntryPoint             0000000180009ab0 f   LineManageAssitant.obj
 0001:00008ba0       ?cast@AcRxDynamicLinker@@SAPEAV1@PEBVAcRxObject@@@Z 0000000180009ba0 f i LineManageAssitant.obj
 0001:00008c70       ??0CAcExtensionModule@@QEAA@XZ 0000000180009c70 f i LineManageAssitant.obj
 0001:00008cf0       ??0MenuLMAMain@@QEAA@XZ    0000000180009cf0 f   MenuLMAMain.obj
 0001:00008e00       ??0CMenu@@QEAA@XZ          0000000180009e00 f i MenuLMAMain.obj
 0001:00008e50       ??_GCMenu@@UEAAPEAXI@Z     0000000180009e50 f i MenuLMAMain.obj
 0001:00008e50       ??_ECMenu@@UEAAPEAXI@Z     0000000180009e50 f i MenuLMAMain.obj
 0001:00008ea0       ??1CMenu@@UEAA@XZ          0000000180009ea0 f i MenuLMAMain.obj
 0001:00008f00       ?LoadMenuW@CMenu@@QEAAHI@Z 0000000180009f00 f i MenuLMAMain.obj
 0001:00008f70       ??_EMenuLMAMain@@UEAAPEAXI@Z 0000000180009f70 f i MenuLMAMain.obj
 0001:00008f70       ??_GMenuLMAMain@@UEAAPEAXI@Z 0000000180009f70 f i MenuLMAMain.obj
 0001:00008fc0       ??0AcEdUIContext@@QEAA@XZ  0000000180009fc0 f i MenuLMAMain.obj
 0001:00009010       ??1AcEdUIContext@@UEAA@XZ  000000018000a010 f i MenuLMAMain.obj
 0001:00009040       ??1?$_String_val@DV?$allocator@D@std@@@std@@QEAA@XZ 000000018000a040 f i LineConfigDataManager.obj
 0001:00009040       ??1CAcExtensionModule@@QEAA@XZ 000000018000a040 f i LineManageAssitant.obj
 0001:00009040       ??1?$_String_val@_WV?$allocator@_W@std@@@std@@QEAA@XZ 000000018000a040 f i CommandManager.obj
 0001:00009040       ??1AcRxObject@@UEAA@XZ     000000018000a040 f i MenuLMAMain.obj
 0001:00009040       ??1CObject@@UEAA@XZ        000000018000a040 f i MenuLMAMain.obj
 0001:00009040       ?OnUpdateMenu@MenuLMAMain@@UEAAXXZ 000000018000a040 f i MenuLMAMain.obj
 0001:00009040       ?AssertValid@CObject@@UEBAXXZ 000000018000a040 f i AddLineDialog.obj
 0001:00009050       ??_EAcEdUIContext@@UEAAPEAXI@Z 000000018000a050 f i MenuLMAMain.obj
 0001:00009050       ??_GAcEdUIContext@@UEAAPEAXI@Z 000000018000a050 f i MenuLMAMain.obj
 0001:000090a0       ??1MenuLMAMain@@UEAA@XZ    000000018000a0a0 f   MenuLMAMain.obj
 0001:00009140       ?getMenuContext@MenuLMAMain@@UEAAPEAXPEBVAcRxClass@@AEBV?$AcArray@VAcDbObjectId@@V?$AcArrayMemCopyReallocator@VAcDbObjectId@@@@@@@Z 000000018000a140 f   MenuLMAMain.obj
 0001:000091b0       ?GetSafeHmenu@CMenu@@QEBAPEAUHMENU__@@XZ 000000018000a1b0 f i MenuLMAMain.obj
 0001:00009200       ?GetSubMenu@CMenu@@QEBAPEAV1@H@Z 000000018000a200 f i MenuLMAMain.obj
 0001:00009250       ?onCommand@MenuLMAMain@@UEAAXK@Z 000000018000a250 f   MenuLMAMain.obj
 0001:00009370       ?onAction@MenuLMAMain@@QEAAXAEBV?$CStringT@_WV?$StrTraitMFC_DLL@_WV?$ChTraitsCRT@_W@ATL@@@@@ATL@@@Z 000000018000a370 f   MenuLMAMain.obj
 0001:00009400       ??8ATL@@YA_NAEBV?$CStringT@_WV?$StrTraitMFC_DLL@_WV?$ChTraitsCRT@_W@ATL@@@@@0@PEB_W@Z 000000018000a400 f i MenuLMAMain.obj
 0001:00009460       ExtRawDllMain              000000018000a460 f   MenuManager.obj
 0001:00009500       ?CreateMenu@MenuManager@@SAXPEAX@Z 000000018000a500 f   MenuManager.obj
 0001:00009590       ?unRegister@MenuManager@@SAXXZ 000000018000a590 f   MenuManager.obj
 0001:00009600       ??_GMenuManager@@AEAAPEAXI@Z 000000018000a600 f i MenuManager.obj
 0001:00009650       ??0MenuManager@@AEAA@PEBX@Z 000000018000a650 f   MenuManager.obj
 0001:000096a0       ??1MenuManager@@AEAA@XZ    000000018000a6a0 f   MenuManager.obj
 0001:000096d0       ?RegisterMenu@MenuManager@@AEAAXXZ 000000018000a6d0 f   MenuManager.obj
 0001:00009780       ?UnRegisterMenu@MenuManager@@AEAAXXZ 000000018000a780 f   MenuManager.obj
 0001:000097e0       ?AddDropdownMenu@MenuManager@@AEAAXXZ 000000018000a7e0 f   MenuManager.obj
 0001:00009eb0       ??1AFX_EXCEPTION_LINK@@QEAA@XZ 000000018000aeb0 f i MenuManager.obj
 0001:00009ee0       ?get_MenuGroups@CAcadApplication@@QEAAPEAUIDispatch@@XZ 000000018000aee0 f i MenuManager.obj
 0001:00009f50       ?get_MenuBar@CAcadApplication@@QEAAPEAUIDispatch@@XZ 000000018000af50 f i MenuManager.obj
 0001:00009fc0       ?get_Count@CAcadMenuBar@@QEAAJXZ 000000018000afc0 f i MenuManager.obj
 0001:0000a030       ?get_Menus@CAcadMenuGroup@@QEAAPEAUIDispatch@@XZ 000000018000b030 f i MenuManager.obj
 0001:0000a0a0       ??0CAcadApplication@@QEAA@PEAUIDispatch@@@Z 000000018000b0a0 f i MenuManager.obj
 0001:0000a0a0       ??0CAcadPopupMenu@@QEAA@PEAUIDispatch@@@Z 000000018000b0a0 f i MenuManager.obj
 0001:0000a0a0       ??0CAcadMenuBar@@QEAA@PEAUIDispatch@@@Z 000000018000b0a0 f i MenuManager.obj
 0001:0000a0a0       ??0CAcadMenuGroups@@QEAA@PEAUIDispatch@@@Z 000000018000b0a0 f i MenuManager.obj
 0001:0000a0a0       ??0CAcadMenuGroup@@QEAA@PEAUIDispatch@@@Z 000000018000b0a0 f i MenuManager.obj
 0001:0000a0a0       ??0CAcadPopupMenus@@QEAA@PEAUIDispatch@@@Z 000000018000b0a0 f i MenuManager.obj
 0001:0000a0f0       ?Item@CAcadMenuGroups@@QEAAPEAUIDispatch@@UtagVARIANT@@@Z 000000018000b0f0 f i MenuManager.obj
 0001:0000a170       ?get_OnMenuBar@CAcadPopupMenu@@QEAAHXZ 000000018000b170 f i MenuManager.obj
 0001:0000a1e0       ?AddMenuItem@CAcadPopupMenu@@QEAAPEAUIDispatch@@UtagVARIANT@@PEB_W1@Z 000000018000b1e0 f i MenuManager.obj
 0001:0000a290       ?AddSeparator@CAcadPopupMenu@@QEAAPEAUIDispatch@@UtagVARIANT@@@Z 000000018000b290 f i MenuManager.obj
 0001:0000a310       ?InsertInMenuBar@CAcadPopupMenu@@QEAAXUtagVARIANT@@@Z 000000018000b310 f i MenuManager.obj
 0001:0000a370       ?Item@CAcadPopupMenus@@QEAAPEAUIDispatch@@UtagVARIANT@@@Z 000000018000b370 f i MenuManager.obj
 0001:0000a3f0       ?Add@CAcadPopupMenus@@QEAAPEAUIDispatch@@PEB_W@Z 000000018000b3f0 f i MenuManager.obj
 0001:0000a470       ??1COleDispatchDriver@@QEAA@XZ 000000018000b470 f i MenuManager.obj
 0001:0000a4a0       ??1CAcadMenuGroup@@QEAA@XZ 000000018000b4a0 f i MenuManager.obj
 0001:0000a4a0       ??1CAcadMenuGroups@@QEAA@XZ 000000018000b4a0 f i MenuManager.obj
 0001:0000a4a0       ??1CAcadApplication@@QEAA@XZ 000000018000b4a0 f i MenuManager.obj
 0001:0000a4a0       ??1CAcadPopupMenu@@QEAA@XZ 000000018000b4a0 f i MenuManager.obj
 0001:0000a4a0       ??1CAcadMenuBar@@QEAA@XZ   000000018000b4a0 f i MenuManager.obj
 0001:0000a4a0       ??1CAcadPopupMenus@@QEAA@XZ 000000018000b4a0 f i MenuManager.obj
 0001:0000a4d0       ?RemoveDropdownMenu@MenuManager@@AEAAXXZ 000000018000b4d0 f   MenuManager.obj
 0001:0000a910       ?RemoveMenuFromMenuBar@CAcadPopupMenus@@QEAAXUtagVARIANT@@@Z 000000018000b910 f i MenuManager.obj
 0001:0000a970       ??B?$CTypedSimpleList@PEAUCRuntimeClass@@@@QEAAPEAUCRuntimeClass@@XZ 000000018000b970 f i MenuManager.obj
 0001:0000a970       ??B?$CTypedSimpleList@PEAVCOleObjectFactory@@@@QEAAPEAVCOleObjectFactory@@XZ 000000018000b970 f i MenuManager.obj
 0001:0000a99e       ?desc@AcEdCommandStack@@SAPEAVAcRxClass@@XZ 000000018000b99e f   accore:accore.dll
 0001:0000a9a4       ?acDocManagerPtr@@YAPEAVAcApDocManager@@XZ 000000018000b9a4 f   accore:accore.dll
 0001:0000a9aa       adsw_acadMainWnd           000000018000b9aa f   accore:accore.dll
 0001:0000a9b0       ?isA@AcEdUIContext@@UEBAPEAVAcRxClass@@XZ 000000018000b9b0 f   accore:accore.dll
 0001:0000a9b6       ?getMenuContext@AcEdUIContext@@UEAAPEAXPEBVAcRxClass@@AEBV?$AcArray@VAcDbObjectId@@V?$AcArrayMemCopyReallocator@VAcDbObjectId@@@@@@AEBV?$AcArray@V?$AcArray@VAcDbFullSubentPath@@V?$AcArrayObjectCopyReallocator@VAcDbFullSubentPath@@@@@@V?$AcArrayObjectCopyReallocator@V?$AcArray@VAcDbFullSubentPath@@V?$AcArrayObjectCopyReallocator@VAcDbFullSubentPath@@@@@@@@@@@Z 000000018000b9b6 f   accore:accore.dll
 0001:0000a9bc       ?OnUpdateMenu@AcEdUIContext@@UEAAXXZ 000000018000b9bc f   accore:accore.dll
 0001:0000a9c2       acedPostCommandPrompt      000000018000b9c2 f   accore:accore.dll
 0001:0000a9c8       ?acedAddDefaultContextMenu@@YAHPEAVAcEdUIContext@@PEBXPEB_W@Z 000000018000b9c8 f   accore:accore.dll
 0001:0000a9ce       ?acedRemoveDefaultContextMenu@@YAHPEAVAcEdUIContext@@@Z 000000018000b9ce f   accore:accore.dll
 0001:0000a9d4       ?acedGetAcadWinApp@@YAPEAVCWinApp@@XZ 000000018000b9d4 f   acad:ACAD.exe
 0001:0000a9da       ?GetThisClass@CAcUiDialog@@SAPEAUCRuntimeClass@@XZ 000000018000b9da f   acui19:acui19.dll
 0001:0000a9e0       ??1CAcUiDialog@@UEAA@XZ    000000018000b9e0 f   acui19:acui19.dll
 0001:0000a9e6       ??0CAcUiDialog@@QEAA@IPEAVCWnd@@PEAUHINSTANCE__@@@Z 000000018000b9e6 f   acui19:acui19.dll
 0001:0000a9ec       ?OnOK@CAcUiDialog@@MEAAXXZ 000000018000b9ec f   acui19:acui19.dll
 0001:0000a9f2       ?OnCancel@CAcUiDialog@@MEAAXXZ 000000018000b9f2 f   acui19:acui19.dll
 0001:0000a9f8       ?FindContextHelpFullPath@CAcUiDialog@@MEAAHPEB_WAEAV?$CStringT@_WV?$StrTraitMFC_DLL@_WV?$ChTraitsCRT@_W@ATL@@@@@ATL@@@Z 000000018000b9f8 f   acui19:acui19.dll
 0001:0000a9fe       ?AppMainWindow@CAcUiDialog@@UEAAPEAVCWnd@@XZ 000000018000b9fe f   acui19:acui19.dll
 0001:0000aa04       ?AppResourceInstance@CAcUiDialog@@UEAAPEAUHINSTANCE__@@XZ 000000018000ba04 f   acui19:acui19.dll
 0001:0000aa0a       ?AppRootKey@CAcUiDialog@@UEAAPEB_WXZ 000000018000ba0a f   acui19:acui19.dll
 0001:0000aa10       ?EnableFloatingWindows@CAcUiDialog@@UEAAXH@Z 000000018000ba10 f   acui19:acui19.dll
 0001:0000aa16       ?IsMultiDocumentActivationEnabled@CAcUiDialog@@UEAAHXZ 000000018000ba16 f   acui19:acui19.dll
 0001:0000aa1c       ?EnableMultiDocumentActivation@CAcUiDialog@@UEAAHH@Z 000000018000ba1c f   acui19:acui19.dll
 0001:0000aa22       ?OnDialogHelp@CAcUiDialog@@UEAAXXZ 000000018000ba22 f   acui19:acui19.dll
 0001:0000aa28       ?OnInitDialog@CAcUiDialog@@UEAAHXZ 000000018000ba28 f   acui19:acui19.dll
 0001:0000aa2e       ?DoDataExchange@CAcUiDialog@@MEAAXPEAVCDataExchange@@@Z 000000018000ba2e f   acui19:acui19.dll
 0001:0000aa34       ?GetThisMessageMap@CAcUiDialog@@KAPEBUAFX_MSGMAP@@XZ 000000018000ba34 f   acui19:acui19.dll
 0001:0000aa3a       ?PreCreateWindow@CAdUiBaseDialog@@MEAAHAEAUtagCREATESTRUCTW@@@Z 000000018000ba3a f   adui19:adui19.dll
 0001:0000aa40       ?PreTranslateMessage@CAdUiBaseDialog@@UEAAHPEAUtagMSG@@@Z 000000018000ba40 f   adui19:adui19.dll
 0001:0000aa46       ?PostNcDestroy@CAdUiBaseDialog@@MEAAXXZ 000000018000ba46 f   adui19:adui19.dll
 0001:0000aa4c       ?Create@CAdUiBaseDialog@@UEAAHIPEAVCWnd@@@Z 000000018000ba4c f   adui19:adui19.dll
 0001:0000aa52       ?Create@CAdUiBaseDialog@@UEAAHPEB_WPEAVCWnd@@@Z 000000018000ba52 f   adui19:adui19.dll
 0001:0000aa58       ?DoModal@CAdUiBaseDialog@@UEAA_JXZ 000000018000ba58 f   adui19:adui19.dll
 0001:0000aa5e       ?DoAdUiMessage@CAdUiBaseDialog@@MEAA?AW4ADUI_REPLY@@W4ADUI_NOTIFY@@I_J@Z 000000018000ba5e f   adui19:adui19.dll
 0001:0000aa64       ?OnNotifyControlChange@CAdUiBaseDialog@@MEAA?AW4ADUI_REPLY@@I_J@Z 000000018000ba64 f   adui19:adui19.dll
 0001:0000aa6a       ?OnNotifyControlValid@CAdUiBaseDialog@@MEAA?AW4ADUI_REPLY@@IH@Z 000000018000ba6a f   adui19:adui19.dll
 0001:0000aa70       ?OnNotifyGeneric@CAdUiBaseDialog@@MEAA?AW4ADUI_REPLY@@I_J@Z 000000018000ba70 f   adui19:adui19.dll
 0001:0000aa76       ?OnNotifyUpdateTip@CAdUiBaseDialog@@MEAA?AW4ADUI_REPLY@@PEAVCWnd@@@Z 000000018000ba76 f   adui19:adui19.dll
 0001:0000aa7c       ?OnInitDialogBegin@CAdUiDialog@@MEAAXXZ 000000018000ba7c f   adui19:adui19.dll
 0001:0000aa82       ?OnInitDialogFinish@CAdUiDialog@@MEAAXXZ 000000018000ba82 f   adui19:adui19.dll
 0001:0000aa88       ?DoDialogHelp@CAdUiDialog@@UEAAHXZ 000000018000ba88 f   adui19:adui19.dll
 0001:0000aa8e       ?ExchangeData@CAdUiBaseDialog@@UEAAHH@Z 000000018000ba8e f   adui19:adui19.dll
 0001:0000aa94       ??0CAdUiListCtrl@@QEAA@XZ  000000018000ba94 f   adui19:adui19.dll
 0001:0000aa9a       ??1CAdUiListCtrl@@UEAA@XZ  000000018000ba9a f   adui19:adui19.dll
 0001:0000aaa0       ?clone@AcRxObject@@UEBAPEAV1@XZ 000000018000baa0 f   ac1st19:Ac1st19.dll
 0001:0000aaa6       ?copyFrom@AcRxObject@@UEAA?AW4ErrorStatus@Acad@@PEBV1@@Z 000000018000baa6 f   ac1st19:Ac1st19.dll
 0001:0000aaac       ?isEqualTo@AcRxObject@@UEBAHPEBV1@@Z 000000018000baac f   ac1st19:Ac1st19.dll
 0001:0000aab2       ?comparedTo@AcRxObject@@UEBA?AW4Ordering@AcRx@@PEBV1@@Z 000000018000bab2 f   ac1st19:Ac1st19.dll
 0001:0000aab8       ?subQueryX@AcRxObject@@MEBAPEAV1@PEBVAcRxClass@@@Z 000000018000bab8 f   ac1st19:Ac1st19.dll
 0001:0000aabe       acutPrintf                 000000018000babe f   acdb19:acdb19.dll
 0001:0000aac4       ?close@AcDbObject@@QEAA?AW4ErrorStatus@Acad@@XZ 000000018000bac4 f   acdb19:acdb19.dll
 0001:0000aaca       ?getSymbolTable@AcDbDatabase@@QEAA?AW4ErrorStatus@Acad@@AEAPEAVAcDbBlockTable@@W4OpenMode@AcDb@@@Z 000000018000baca f   acdb19:acdb19.dll
 0001:0000aad0       ?acdbHostApplicationServices@@YAPEAVAcDbHostApplicationServices@@XZ 000000018000bad0 f   acdb19:acdb19.dll
 0001:0000aad6       ?appendAcDbEntity@AcDbBlockTableRecord@@QEAA?AW4ErrorStatus@Acad@@AEAVAcDbObjectId@@PEAVAcDbEntity@@@Z 000000018000bad6 f   acdb19:acdb19.dll
 0001:0000aadc       ?getAt@AcDbBlockTable@@QEBA?AW4ErrorStatus@Acad@@PEB_WAEAPEAVAcDbBlockTableRecord@@W4OpenMode@AcDb@@_N@Z 000000018000badc f   acdb19:acdb19.dll
 0001:0000aae2       ??0AcDb3dSolid@@QEAA@XZ    000000018000bae2 f   acdb19:acdb19.dll
 0001:0000aae8       ?desc@AcRxDynamicLinker@@SAPEAVAcRxClass@@XZ 000000018000bae8 f   acdb19:acdb19.dll
 0001:0000aaee       ??3@YAXPEAX@Z              000000018000baee f   mfc100u:mfc100u.dll
 0001:0000aaf4       ??1CTreeCtrl@@UEAA@XZ      000000018000baf4 f   mfc100u:mfc100u.dll
 0001:0000aafa       ?OnCmdMsg@CDialog@@UEAAHIHPEAXPEAUAFX_CMDHANDLERINFO@@@Z 000000018000bafa f   mfc100u:mfc100u.dll
 0001:0000ab00       ?OnFinalRelease@CWnd@@UEAAXXZ 000000018000bb00 f   mfc100u:mfc100u.dll
 0001:0000ab06       ?IsInvokeAllowed@CCmdTarget@@UEAAHJ@Z 000000018000bb06 f   mfc100u:mfc100u.dll
 0001:0000ab0c       ?GetDispatchIID@CCmdTarget@@UEAAHPEAU_GUID@@@Z 000000018000bb0c f   mfc100u:mfc100u.dll
 0001:0000ab12       ?GetTypeInfoCount@CCmdTarget@@UEAAIXZ 000000018000bb12 f   mfc100u:mfc100u.dll
 0001:0000ab18       ?GetTypeLibCache@CCmdTarget@@UEAAPEAVCTypeLibCache@@XZ 000000018000bb18 f   mfc100u:mfc100u.dll
 0001:0000ab1e       ?GetTypeLib@CCmdTarget@@UEAAJKPEAPEAUITypeLib@@@Z 000000018000bb1e f   mfc100u:mfc100u.dll
 0001:0000ab24       ?GetCommandMap@CCmdTarget@@MEBAPEBUAFX_OLECMDMAP@@XZ 000000018000bb24 f   mfc100u:mfc100u.dll
 0001:0000ab2a       ?GetDispatchMap@CCmdTarget@@MEBAPEBUAFX_DISPMAP@@XZ 000000018000bb2a f   mfc100u:mfc100u.dll
 0001:0000ab30       ?GetConnectionMap@CCmdTarget@@MEBAPEBUAFX_CONNECTIONMAP@@XZ 000000018000bb30 f   mfc100u:mfc100u.dll
 0001:0000ab36       ?GetInterfaceMap@CWnd@@MEBAPEBUAFX_INTERFACEMAP@@XZ 000000018000bb36 f   mfc100u:mfc100u.dll
 0001:0000ab3c       ?GetEventSinkMap@CCmdTarget@@MEBAPEBUAFX_EVENTSINKMAP@@XZ 000000018000bb3c f   mfc100u:mfc100u.dll
 0001:0000ab42       ?OnCreateAggregates@CCmdTarget@@UEAAHXZ 000000018000bb42 f   mfc100u:mfc100u.dll
 0001:0000ab48       ?GetInterfaceHook@CCmdTarget@@UEAAPEAUIUnknown@@PEBX@Z 000000018000bb48 f   mfc100u:mfc100u.dll
 0001:0000ab4e       ?GetExtraConnectionPoints@CCmdTarget@@MEAAHPEAVCPtrArray@@@Z 000000018000bb4e f   mfc100u:mfc100u.dll
 0001:0000ab54       ?GetConnectionHook@CCmdTarget@@MEAAPEAUIConnectionPoint@@AEBU_GUID@@@Z 000000018000bb54 f   mfc100u:mfc100u.dll
 0001:0000ab5a       ?PreSubclassWindow@CWnd@@UEAAXXZ 000000018000bb5a f   mfc100u:mfc100u.dll
 0001:0000ab60       ?Create@CWnd@@UEAAHPEB_W0KAEBUtagRECT@@PEAV1@IPEAUCCreateContext@@@Z 000000018000bb60 f   mfc100u:mfc100u.dll
 0001:0000ab66       ?CreateEx@CWnd@@UEAAHKPEB_W0KAEBUtagRECT@@PEAV1@IPEAX@Z 000000018000bb66 f   mfc100u:mfc100u.dll
 0001:0000ab6c       ?CreateEx@CWnd@@UEAAHKPEB_W0KHHHHPEAUHWND__@@PEAUHMENU__@@PEAX@Z 000000018000bb6c f   mfc100u:mfc100u.dll
 0001:0000ab72       ?DestroyWindow@CWnd@@UEAAHXZ 000000018000bb72 f   mfc100u:mfc100u.dll
 0001:0000ab78       ?CalcWindowRect@CWnd@@UEAAXPEAUtagRECT@@I@Z 000000018000bb78 f   mfc100u:mfc100u.dll
 0001:0000ab7e       ?GetMenu@CWnd@@UEBAPEAVCMenu@@XZ 000000018000bb7e f   mfc100u:mfc100u.dll
 0001:0000ab84       ?SetMenu@CWnd@@UEAAHPEAVCMenu@@@Z 000000018000bb84 f   mfc100u:mfc100u.dll
 0001:0000ab8a       ?OnToolHitTest@CWnd@@UEBA_JVCPoint@@PEAUtagTOOLINFOW@@@Z 000000018000bb8a f   mfc100u:mfc100u.dll
 0001:0000ab90       ?GetScrollBarCtrl@CWnd@@UEBAPEAVCScrollBar@@H@Z 000000018000bb90 f   mfc100u:mfc100u.dll
 0001:0000ab96       ?WinHelpW@CWnd@@UEAAX_KI@Z 000000018000bb96 f   mfc100u:mfc100u.dll
 0001:0000ab9c       ?HtmlHelpW@CWnd@@UEAAX_KI@Z 000000018000bb9c f   mfc100u:mfc100u.dll
 0001:0000aba2       ?WinHelpInternal@CWnd@@UEAAX_KI@Z 000000018000bba2 f   mfc100u:mfc100u.dll
 0001:0000aba8       ?ContinueModal@CWnd@@UEAAHXZ 000000018000bba8 f   mfc100u:mfc100u.dll
 0001:0000abae       ?EndModalLoop@CWnd@@UEAAXH@Z 000000018000bbae f   mfc100u:mfc100u.dll
 0001:0000abb4       ?OnDrawIconicThumbnailOrLivePreview@CWnd@@UEAAXAEAVCDC@@VCRect@@VCSize@@HAEAH@Z 000000018000bbb4 f   mfc100u:mfc100u.dll
 0001:0000abba       ?EnsureStdObj@CWnd@@UEAAJXZ 000000018000bbba f   mfc100u:mfc100u.dll
 0001:0000abc0       ?get_accParent@CWnd@@UEAAJPEAPEAUIDispatch@@@Z 000000018000bbc0 f   mfc100u:mfc100u.dll
 0001:0000abc6       ?get_accChildCount@CWnd@@UEAAJPEAJ@Z 000000018000bbc6 f   mfc100u:mfc100u.dll
 0001:0000abcc       ?get_accChild@CWnd@@UEAAJUtagVARIANT@@PEAPEAUIDispatch@@@Z 000000018000bbcc f   mfc100u:mfc100u.dll
 0001:0000abd2       ?get_accName@CWnd@@UEAAJUtagVARIANT@@PEAPEA_W@Z 000000018000bbd2 f   mfc100u:mfc100u.dll
 0001:0000abd8       ?get_accValue@CWnd@@UEAAJUtagVARIANT@@PEAPEA_W@Z 000000018000bbd8 f   mfc100u:mfc100u.dll
 0001:0000abde       ?get_accDescription@CWnd@@UEAAJUtagVARIANT@@PEAPEA_W@Z 000000018000bbde f   mfc100u:mfc100u.dll
 0001:0000abe4       ?get_accRole@CWnd@@UEAAJUtagVARIANT@@PEAU2@@Z 000000018000bbe4 f   mfc100u:mfc100u.dll
 0001:0000abea       ?get_accState@CWnd@@UEAAJUtagVARIANT@@PEAU2@@Z 000000018000bbea f   mfc100u:mfc100u.dll
 0001:0000abf0       ?get_accHelp@CWnd@@UEAAJUtagVARIANT@@PEAPEA_W@Z 000000018000bbf0 f   mfc100u:mfc100u.dll
 0001:0000abf6       ?get_accHelpTopic@CWnd@@UEAAJPEAPEA_WUtagVARIANT@@PEAJ@Z 000000018000bbf6 f   mfc100u:mfc100u.dll
 0001:0000abfc       ?get_accKeyboardShortcut@CWnd@@UEAAJUtagVARIANT@@PEAPEA_W@Z 000000018000bbfc f   mfc100u:mfc100u.dll
 0001:0000ac02       ?get_accFocus@CWnd@@UEAAJPEAUtagVARIANT@@@Z 000000018000bc02 f   mfc100u:mfc100u.dll
 0001:0000ac08       ?get_accSelection@CWnd@@UEAAJPEAUtagVARIANT@@@Z 000000018000bc08 f   mfc100u:mfc100u.dll
 0001:0000ac0e       ?get_accDefaultAction@CWnd@@UEAAJUtagVARIANT@@PEAPEA_W@Z 000000018000bc0e f   mfc100u:mfc100u.dll
 0001:0000ac14       ?accSelect@CWnd@@UEAAJJUtagVARIANT@@@Z 000000018000bc14 f   mfc100u:mfc100u.dll
 0001:0000ac1a       ?accLocation@CWnd@@UEAAJPEAJ000UtagVARIANT@@@Z 000000018000bc1a f   mfc100u:mfc100u.dll
 0001:0000ac20       ?accNavigate@CWnd@@UEAAJJUtagVARIANT@@PEAU2@@Z 000000018000bc20 f   mfc100u:mfc100u.dll
 0001:0000ac26       ?accHitTest@CWnd@@UEAAJJJPEAUtagVARIANT@@@Z 000000018000bc26 f   mfc100u:mfc100u.dll
 0001:0000ac2c       ?accDoDefaultAction@CWnd@@UEAAJUtagVARIANT@@@Z 000000018000bc2c f   mfc100u:mfc100u.dll
 0001:0000ac32       ?put_accName@CWnd@@UEAAJUtagVARIANT@@PEA_W@Z 000000018000bc32 f   mfc100u:mfc100u.dll
 0001:0000ac38       ?put_accValue@CWnd@@UEAAJUtagVARIANT@@PEA_W@Z 000000018000bc38 f   mfc100u:mfc100u.dll
 0001:0000ac3e       ?SetProxy@CWnd@@UEAAJPEAUIAccessibleProxy@@@Z 000000018000bc3e f   mfc100u:mfc100u.dll
 0001:0000ac44       ?CreateAccessibleProxy@CWnd@@UEAAJ_K_JPEA_J@Z 000000018000bc44 f   mfc100u:mfc100u.dll
 0001:0000ac4a       ?OnCommand@CWnd@@MEAAH_K_J@Z 000000018000bc4a f   mfc100u:mfc100u.dll
 0001:0000ac50       ?OnNotify@CWnd@@MEAAH_K_JPEA_J@Z 000000018000bc50 f   mfc100u:mfc100u.dll
 0001:0000ac56       ?GetSuperWndProcAddr@CWnd@@MEAAPEAP6A_JPEAUHWND__@@I_K_J@ZXZ 000000018000bc56 f   mfc100u:mfc100u.dll
 0001:0000ac5c       ?OnAmbientProperty@CWnd@@UEAAHPEAVCOleControlSite@@JPEAUtagVARIANT@@@Z 000000018000bc5c f   mfc100u:mfc100u.dll
 0001:0000ac62       ?WindowProc@CWnd@@MEAA_JI_K_J@Z 000000018000bc62 f   mfc100u:mfc100u.dll
 0001:0000ac68       ?OnWndMsg@CWnd@@MEAAHI_K_JPEA_J@Z 000000018000bc68 f   mfc100u:mfc100u.dll
 0001:0000ac6e       ?DefWindowProcW@CWnd@@MEAA_JI_K_J@Z 000000018000bc6e f   mfc100u:mfc100u.dll
 0001:0000ac74       ?OnChildNotify@CWnd@@MEAAHI_K_JPEA_J@Z 000000018000bc74 f   mfc100u:mfc100u.dll
 0001:0000ac7a       ?OnTouchInputs@CWnd@@MEAAHIPEAUtagTOUCHINPUT@@@Z 000000018000bc7a f   mfc100u:mfc100u.dll
 0001:0000ac80       ?OnTouchInput@CWnd@@MEAAHVCPoint@@HHPEAUtagTOUCHINPUT@@@Z 000000018000bc80 f   mfc100u:mfc100u.dll
 0001:0000ac86       ?GetGestureStatus@CWnd@@MEAAKVCPoint@@@Z 000000018000bc86 f   mfc100u:mfc100u.dll
 0001:0000ac8c       ?OnGestureZoom@CWnd@@MEAAHVCPoint@@J@Z 000000018000bc8c f   mfc100u:mfc100u.dll
 0001:0000ac92       ?OnGesturePan@CWnd@@MEAAHVCPoint@@0@Z 000000018000bc92 f   mfc100u:mfc100u.dll
 0001:0000ac98       ?OnGestureRotate@CWnd@@MEAAHVCPoint@@N@Z 000000018000bc98 f   mfc100u:mfc100u.dll
 0001:0000ac9e       ?OnGestureTwoFingerTap@CWnd@@MEAAHVCPoint@@@Z 000000018000bc9e f   mfc100u:mfc100u.dll
 0001:0000aca4       ?OnGesturePressAndTap@CWnd@@MEAAHVCPoint@@J@Z 000000018000bca4 f   mfc100u:mfc100u.dll
 0001:0000acaa       ?CheckAutoCenter@CDialog@@UEAAHXZ 000000018000bcaa f   mfc100u:mfc100u.dll
 0001:0000acb0       ?IsFrameWnd@CWnd@@UEBAHXZ  000000018000bcb0 f   mfc100u:mfc100u.dll
 0001:0000acb6       ?CreateControlContainer@CWnd@@MEAAHPEAPEAVCOleControlContainer@@@Z 000000018000bcb6 f   mfc100u:mfc100u.dll
 0001:0000acbc       ?CreateControlSite@CWnd@@MEAAHPEAVCOleControlContainer@@PEAPEAVCOleControlSite@@IAEBU_GUID@@@Z 000000018000bcbc f   mfc100u:mfc100u.dll
 0001:0000acc2       ?SetOccDialogInfo@CDialog@@MEAAHPEAU_AFX_OCC_DIALOG_INFO@@@Z 000000018000bcc2 f   mfc100u:mfc100u.dll
 0001:0000acc8       ?GetOccDialogInfo@CDialog@@MEAAPEAU_AFX_OCC_DIALOG_INFO@@XZ 000000018000bcc8 f   mfc100u:mfc100u.dll
 0001:0000acce       ?CreateIndirect@CDialog@@UEAAHPEAXPEAVCWnd@@@Z 000000018000bcce f   mfc100u:mfc100u.dll
 0001:0000acd4       ?CreateIndirect@CDialog@@UEAAHPEBUDLGTEMPLATE@@PEAVCWnd@@PEAX@Z 000000018000bcd4 f   mfc100u:mfc100u.dll
 0001:0000acda       ?OnSetFont@CDialog@@UEAAXPEAVCFont@@@Z 000000018000bcda f   mfc100u:mfc100u.dll
 0001:0000ace0       ?PreInitDialog@CDialog@@MEAAXXZ 000000018000bce0 f   mfc100u:mfc100u.dll
 0001:0000ace6       ??0CWnd@@QEAA@XZ           000000018000bce6 f   mfc100u:mfc100u.dll
 0001:0000acec       ?GetRuntimeClass@CListCtrl@@UEBAPEAUCRuntimeClass@@XZ 000000018000bcec f   mfc100u:mfc100u.dll
 0001:0000acf2       ?OnCmdMsg@CCmdTarget@@UEAAHIHPEAXPEAUAFX_CMDHANDLERINFO@@@Z 000000018000bcf2 f   mfc100u:mfc100u.dll
 0001:0000acf8       ?GetMessageMap@CListCtrl@@MEBAPEBUAFX_MSGMAP@@XZ 000000018000bcf8 f   mfc100u:mfc100u.dll
 0001:0000acfe       ?PreCreateWindow@CWnd@@UEAAHAEAUtagCREATESTRUCTW@@@Z 000000018000bcfe f   mfc100u:mfc100u.dll
 0001:0000ad04       ?PreTranslateMessage@CWnd@@UEAAHPEAUtagMSG@@@Z 000000018000bd04 f   mfc100u:mfc100u.dll
 0001:0000ad0a       ?PostNcDestroy@CWnd@@MEAAXXZ 000000018000bd0a f   mfc100u:mfc100u.dll
 0001:0000ad10       ?OnChildNotify@CListCtrl@@MEAAHI_K_JPEA_J@Z 000000018000bd10 f   mfc100u:mfc100u.dll
 0001:0000ad16       ?CheckAutoCenter@CWnd@@UEAAHXZ 000000018000bd16 f   mfc100u:mfc100u.dll
 0001:0000ad1c       ?SetOccDialogInfo@CWnd@@MEAAHPEAU_AFX_OCC_DIALOG_INFO@@@Z 000000018000bd1c f   mfc100u:mfc100u.dll
 0001:0000ad22       ?GetOccDialogInfo@CWnd@@MEAAPEAU_AFX_OCC_DIALOG_INFO@@XZ 000000018000bd22 f   mfc100u:mfc100u.dll
 0001:0000ad28       ?DrawItem@CListCtrl@@UEAAXPEAUtagDRAWITEMSTRUCT@@@Z 000000018000bd28 f   mfc100u:mfc100u.dll
 0001:0000ad2e       ??1CListCtrl@@UEAA@XZ      000000018000bd2e f   mfc100u:mfc100u.dll
 0001:0000ad34       ?GetRuntimeClass@CTreeCtrl@@UEBAPEAUCRuntimeClass@@XZ 000000018000bd34 f   mfc100u:mfc100u.dll
 0001:0000ad3a       ?GetMessageMap@CTreeCtrl@@MEBAPEBUAFX_MSGMAP@@XZ 000000018000bd3a f   mfc100u:mfc100u.dll
 0001:0000ad40       ?InsertItem@CTreeCtrl@@QEAAPEAU_TREEITEM@@IPEB_WHHII_JPEAU2@2@Z 000000018000bd40 f   mfc100u:mfc100u.dll
 0001:0000ad46       ?UpdateData@CWnd@@QEAAHH@Z 000000018000bd46 f   mfc100u:mfc100u.dll
 0001:0000ad4c       ?SetItemText@CListCtrl@@QEAAHHHPEB_W@Z 000000018000bd4c f   mfc100u:mfc100u.dll
 0001:0000ad52       ?DDX_Control@@YAXPEAVCDataExchange@@HAEAVCWnd@@@Z 000000018000bd52 f   mfc100u:mfc100u.dll
 0001:0000ad58       ??2@YAPEAX_K@Z             000000018000bd58 f   mfc100u:mfc100u.dll
 0001:0000ad5e       ?FromHandle@CWnd@@SAPEAV1@PEAUHWND__@@@Z 000000018000bd5e f   mfc100u:mfc100u.dll
 0001:0000ad64       ?AfxTermExtensionModule@@YAXAEAUAFX_EXTENSION_MODULE@@H@Z 000000018000bd64 f   mfc100u:mfc100u.dll
 0001:0000ad6a       ??0CDynLinkLibrary@@QEAA@AEAUAFX_EXTENSION_MODULE@@H@Z 000000018000bd6a f   mfc100u:mfc100u.dll
 0001:0000ad70       ?AfxInitExtensionModule@@YAHAEAUAFX_EXTENSION_MODULE@@PEAUHINSTANCE__@@@Z 000000018000bd70 f   mfc100u:mfc100u.dll
 0001:0000ad76       ?AfxGetModuleState@@YAPEAVAFX_MODULE_STATE@@XZ 000000018000bd76 f   mfc100u:mfc100u.dll
 0001:0000ad7c       ?GetRuntimeClass@CMenu@@UEBAPEAUCRuntimeClass@@XZ 000000018000bd7c f   mfc100u:mfc100u.dll
 0001:0000ad82       ?DrawItem@CMenu@@UEAAXPEAUtagDRAWITEMSTRUCT@@@Z 000000018000bd82 f   mfc100u:mfc100u.dll
 0001:0000ad88       ?MeasureItem@CMenu@@UEAAXPEAUtagMEASUREITEMSTRUCT@@@Z 000000018000bd88 f   mfc100u:mfc100u.dll
 0001:0000ad8e       ?DestroyMenu@CMenu@@QEAAHXZ 000000018000bd8e f   mfc100u:mfc100u.dll
 0001:0000ad94       ?Attach@CMenu@@QEAAHPEAUHMENU__@@@Z 000000018000bd94 f   mfc100u:mfc100u.dll
 0001:0000ad9a       ?AfxFindResourceHandle@@YAPEAUHINSTANCE__@@PEB_W0@Z 000000018000bd9a f   mfc100u:mfc100u.dll
 0001:0000ada0       ?FromHandle@CMenu@@SAPEAV1@PEAUHMENU__@@@Z 000000018000bda0 f   mfc100u:mfc100u.dll
 0001:0000ada6       ?GetMenuStringW@CMenu@@QEBAHIAEAV?$CStringT@_WV?$StrTraitMFC_DLL@_WV?$ChTraitsCRT@_W@ATL@@@@@ATL@@I@Z 000000018000bda6 f   mfc100u:mfc100u.dll
 0001:0000adac       ?Delete@CException@@QEAAXXZ 000000018000bdac f   mfc100u:mfc100u.dll
 0001:0000adb2       ?GetIDispatch@CCmdTarget@@QEAAPEAUIDispatch@@H@Z 000000018000bdb2 f   mfc100u:mfc100u.dll
 0001:0000adb8       ??0AFX_EXCEPTION_LINK@@QEAA@XZ 000000018000bdb8 f   mfc100u:mfc100u.dll
 0001:0000adbe       ?AfxTryCleanup@@YAXXZ      000000018000bdbe f   mfc100u:mfc100u.dll
 0001:0000adc4       ??0COleDispatchDriver@@QEAA@PEAUIDispatch@@H@Z 000000018000bdc4 f   mfc100u:mfc100u.dll
 0001:0000adca       ?InvokeHelper@COleDispatchDriver@@QEAAXJGGPEAXPEBEZZ 000000018000bdca f   mfc100u:mfc100u.dll
 0001:0000add0       ?ReleaseDispatch@COleDispatchDriver@@QEAAXXZ 000000018000bdd0 f   mfc100u:mfc100u.dll
 0001:0000add6       __CxxFrameHandler3         000000018000bdd6 f   msvcrt:MSVCR100.dll
 0001:0000addc       ??_Etype_info@@UEAAPEAXI@Z 000000018000bddc f i msvcrt:ti_inst.obj
 0001:0000ae48       _RTC_CheckStackVars        000000018000be48 f   msvcrt:_stack_.obj
 0001:0000aec0       _RTC_Check_4_to_1          000000018000bec0 f   msvcrt:_convert_.obj
 0001:0000aef0       _RTC_Check_4_to_2          000000018000bef0 f   msvcrt:_convert_.obj
 0001:0000af20       _RTC_Check_8_to_4          000000018000bf20 f   msvcrt:_convert_.obj
 0001:0000af58       _onexit                    000000018000bf58 f   msvcrt:atonexit.obj
 0001:0000b008       atexit                     000000018000c008 f   msvcrt:atonexit.obj
 0001:0000b020       __GSHandlerCheckCommon     000000018000c020 f   msvcrt:gshandler.obj
 0001:0000b084       __GSHandlerCheck           000000018000c084 f   msvcrt:gshandler.obj
 0001:0000b0c0       __security_check_cookie    000000018000c0c0 f   msvcrt:amdsecgs.obj
 0001:0000b0e0       __GSHandlerCheck_EH        000000018000c0e0 f   msvcrt:gshandlereh.obj
 0001:0000b170       memcpy                     000000018000c170 f   msvcrt:MSVCR100.dll
 0001:0000b176       _CxxThrowException         000000018000c176 f   msvcrt:MSVCR100.dll
 0001:0000b17c       ??0exception@std@@QEAA@AEBV01@@Z 000000018000c17c f   msvcrt:MSVCR100.dll
 0001:0000b182       ?what@exception@std@@UEBAPEBDXZ 000000018000c182 f   msvcrt:MSVCR100.dll
 0001:0000b188       strlen                     000000018000c188 f   msvcrt:MSVCR100.dll
 0001:0000b18e       _purecall                  000000018000c18e f   msvcrt:MSVCR100.dll
 0001:0000b1f4       _CRT_INIT                  000000018000c1f4 f   msvcrt:crtdll.obj
 0001:0000b58c       _DllMainCRTStartup         000000018000c58c f   msvcrt:crtdll.obj
 0001:0000b5cc       ?__ArrayUnwind@@YAXPEAX_KHP6AX0@Z@Z 000000018000c5cc f   msvcrt:ehvecdtr.obj
 0001:0000b618       ??_M@YAXPEAX_KHP6AX0@Z@Z   000000018000c618 f   msvcrt:ehvecdtr.obj
 0001:0000b678       ?_RTC_GetErrorFunc@@YAP6AHHPEBDH00ZZPEBX@Z 000000018000c678 f   msvcrt:_userapi_.obj
 0001:0000b680       ?_RTC_GetErrorFuncW@@YAP6AHHPEB_WH00ZZPEBX@Z 000000018000c680 f   msvcrt:_userapi_.obj
 0001:0000b958       ?_RTC_Failure@@YAXPEAXH@Z  000000018000c958 f   msvcrt:_error_.obj
 0001:0000b9a4       ?_RTC_StackFailure@@YAXPEAXPEBD@Z 000000018000c9a4 f   msvcrt:_error_.obj
 0001:0000ba84       __C_specific_handler       000000018000ca84 f   msvcrt:MSVCR100.dll
 0001:0000ba8a       _unlock                    000000018000ca8a f   msvcrt:MSVCR100.dll
 0001:0000ba90       __dllonexit                000000018000ca90 f   msvcrt:MSVCR100.dll
 0001:0000ba96       _lock                      000000018000ca96 f   msvcrt:MSVCR100.dll
 0001:0000ba9c       __report_gsfailure         000000018000ca9c f   msvcrt:gs_report.obj
 0001:0000bbe8       __clean_type_info_names    000000018000cbe8 f   msvcrt:tncleanup.obj
 0001:0000bbf4       _RTC_Initialize            000000018000cbf4 f   msvcrt:_initsect_.obj
 0001:0000bc2c       _RTC_Terminate             000000018000cc2c f   msvcrt:_initsect_.obj
 0001:0000bc70       _ValidateImageBase         000000018000cc70 f   msvcrt:pesect.obj
 0001:0000bca0       _FindPESection             000000018000cca0 f   msvcrt:pesect.obj
 0001:0000bcf0       _IsNonwritableInCurrentImage 000000018000ccf0 f   msvcrt:pesect.obj
 0001:0000bd32       _initterm                  000000018000cd32 f   msvcrt:MSVCR100.dll
 0001:0000bd38       _initterm_e                000000018000cd38 f   msvcrt:MSVCR100.dll
 0001:0000bd3e       _amsg_exit                 000000018000cd3e f   msvcrt:MSVCR100.dll
 0001:0000bd44       __CppXcptFilter            000000018000cd44 f   msvcrt:MSVCR100.dll
 0001:0000bd4c       __security_init_cookie     000000018000cd4c f   msvcrt:gs_support.obj
 0001:0000be00       ?terminate@@YAXXZ          000000018000ce00 f   msvcrt:MSVCR100.dll
 0001:0000be06       ??1type_info@@UEAA@XZ      000000018000ce06 f   msvcrt:MSVCR100.dll
 0001:0000be06       ?_type_info_dtor_internal_method@type_info@@QEAAXXZ 000000018000ce06 f   msvcrt:MSVCR100.dll
 0001:0000c028       ?_RTC_GetSrcLine@@YAHPEAEPEA_WKPEAH1K@Z 000000018000d028 f   msvcrt:_pdblkup_.obj
 0001:0000c392       __crt_debugger_hook        000000018000d392 f   msvcrt:MSVCR100.dll
 0001:0000c398       __clean_type_info_names_internal 000000018000d398 f   msvcrt:MSVCR100.dll
 0001:0000c39e       RtlVirtualUnwind           000000018000d39e f   kernel32:KERNEL32.dll
 0001:0000c3a4       RtlLookupFunctionEntry     000000018000d3a4 f   kernel32:KERNEL32.dll
 0001:0000c3b0       acrxGetApiVersion          000000018000d3b0 f   rxapi:libinitx64.obj
 0001:0000c3c0       acrxGetApiVersionImpl      000000018000d3c0 f   rxapi:libinit.obj
 0002:00000000       __imp_?acedGetAcadWinApp@@YAPEAVCWinApp@@XZ 000000018000f000     acad:ACAD.exe
 0002:00000008       \177ACAD_NULL_THUNK_DATA   000000018000f008     acad:ACAD.exe
 0002:00000010       __imp_?freeRawMem@AcHeapOperators@@CAXPEAX@Z 000000018000f010     ac1st19:Ac1st19.dll
 0002:00000018       __imp_?allocRawMem@AcHeapOperators@@CAPEAX_K@Z 000000018000f018     ac1st19:Ac1st19.dll
 0002:00000020       __imp_?isDerivedFrom@AcRxClass@@QEBA_NPEBV1@@Z 000000018000f020     ac1st19:Ac1st19.dll
 0002:00000028       __imp_?clone@AcRxObject@@UEBAPEAV1@XZ 000000018000f028     ac1st19:Ac1st19.dll
 0002:00000030       __imp_?copyFrom@AcRxObject@@UEAA?AW4ErrorStatus@Acad@@PEBV1@@Z 000000018000f030     ac1st19:Ac1st19.dll
 0002:00000038       __imp_??0AcRxObject@@IEAA@XZ 000000018000f038     ac1st19:Ac1st19.dll
 0002:00000040       __imp_?subQueryX@AcRxObject@@MEBAPEAV1@PEBVAcRxClass@@@Z 000000018000f040     ac1st19:Ac1st19.dll
 0002:00000048       __imp_?comparedTo@AcRxObject@@UEBA?AW4Ordering@AcRx@@PEBV1@@Z 000000018000f048     ac1st19:Ac1st19.dll
 0002:00000050       __imp_?isEqualTo@AcRxObject@@UEBAHPEBV1@@Z 000000018000f050     ac1st19:Ac1st19.dll
 0002:00000058       __imp_acrxSysRegistry      000000018000f058     ac1st19:Ac1st19.dll
 0002:00000060       \177Ac1st19_NULL_THUNK_DATA 000000018000f060     ac1st19:Ac1st19.dll
 0002:00000068       __imp_?setToTranslation@AcGeMatrix3d@@QEAAAEAV1@AEBVAcGeVector3d@@@Z 000000018000f068     acge19:AcGe19.dll
 0002:00000070       __imp_??0AcGeMatrix3d@@QEAA@XZ 000000018000f070     acge19:AcGe19.dll
 0002:00000078       __imp_??0AcGeVector3d@@QEAA@NNN@Z 000000018000f078     acge19:AcGe19.dll
 0002:00000080       __imp_??1AcGePlane@@QEAA@XZ 000000018000f080     acge19:AcGe19.dll
 0002:00000088       __imp_?set@AcGePlane@@QEAAAEAV1@AEBVAcGePoint3d@@AEBVAcGeVector3d@@@Z 000000018000f088     acge19:AcGe19.dll
 0002:00000090       __imp_??0AcGePlane@@QEAA@XZ 000000018000f090     acge19:AcGe19.dll
 0002:00000098       __imp_??0AcGePoint3d@@QEAA@NNN@Z 000000018000f098     acge19:AcGe19.dll
 0002:000000a0       \177AcGe19_NULL_THUNK_DATA 000000018000f0a0     acge19:AcGe19.dll
 0002:000000a8       __imp_HeapFree             000000018000f0a8     kernel32:KERNEL32.dll
 0002:000000b0       __imp_FreeLibrary          000000018000f0b0     kernel32:KERNEL32.dll
 0002:000000b8       __imp_GetSystemTimeAsFileTime 000000018000f0b8     kernel32:KERNEL32.dll
 0002:000000c0       __imp_GetCurrentProcessId  000000018000f0c0     kernel32:KERNEL32.dll
 0002:000000c8       __imp_GetCurrentThreadId   000000018000f0c8     kernel32:KERNEL32.dll
 0002:000000d0       __imp_GetTickCount         000000018000f0d0     kernel32:KERNEL32.dll
 0002:000000d8       __imp_QueryPerformanceCounter 000000018000f0d8     kernel32:KERNEL32.dll
 0002:000000e0       __imp_RtlCaptureContext    000000018000f0e0     kernel32:KERNEL32.dll
 0002:000000e8       __imp_RtlLookupFunctionEntry 000000018000f0e8     kernel32:KERNEL32.dll
 0002:000000f0       __imp_RtlVirtualUnwind     000000018000f0f0     kernel32:KERNEL32.dll
 0002:000000f8       __imp_SetUnhandledExceptionFilter 000000018000f0f8     kernel32:KERNEL32.dll
 0002:00000100       __imp_UnhandledExceptionFilter 000000018000f100     kernel32:KERNEL32.dll
 0002:00000108       __imp_GetCurrentProcess    000000018000f108     kernel32:KERNEL32.dll
 0002:00000110       __imp_TerminateProcess     000000018000f110     kernel32:KERNEL32.dll
 0002:00000118       __imp_LoadLibraryW         000000018000f118     kernel32:KERNEL32.dll
 0002:00000120       __imp_GetProcAddress       000000018000f120     kernel32:KERNEL32.dll
 0002:00000128       __imp_MultiByteToWideChar  000000018000f128     kernel32:KERNEL32.dll
 0002:00000130       __imp_IsDebuggerPresent    000000018000f130     kernel32:KERNEL32.dll
 0002:00000138       __imp_WideCharToMultiByte  000000018000f138     kernel32:KERNEL32.dll
 0002:00000140       __imp_RaiseException       000000018000f140     kernel32:KERNEL32.dll
 0002:00000148       __imp_HeapAlloc            000000018000f148     kernel32:KERNEL32.dll
 0002:00000150       __imp_DecodePointer        000000018000f150     kernel32:KERNEL32.dll
 0002:00000158       __imp_EncodePointer        000000018000f158     kernel32:KERNEL32.dll
 0002:00000160       __imp_VirtualQuery         000000018000f160     kernel32:KERNEL32.dll
 0002:00000168       __imp_GetModuleFileNameW   000000018000f168     kernel32:KERNEL32.dll
 0002:00000170       __imp_GetProcessHeap       000000018000f170     kernel32:KERNEL32.dll
 0002:00000178       __imp_Sleep                000000018000f178     kernel32:KERNEL32.dll
 0002:00000180       \177KERNEL32_NULL_THUNK_DATA 000000018000f180     kernel32:KERNEL32.dll
 0002:00000188       __imp_?_Xlength_error@std@@YAXPEBD@Z 000000018000f188     msvcprt:MSVCP100.dll
 0002:00000190       __imp_?_Xout_of_range@std@@YAXPEBD@Z 000000018000f190     msvcprt:MSVCP100.dll
 0002:00000198       __imp_?_Orphan_all@_Container_base0@std@@QEAAXXZ 000000018000f198     msvcprt:MSVCP100.dll
 0002:000001a0       \177MSVCP100_NULL_THUNK_DATA 000000018000f1a0     msvcprt:MSVCP100.dll
 0002:000001a8       __imp___CppXcptFilter      000000018000f1a8     msvcrt:MSVCR100.dll
 0002:000001b0       __imp__amsg_exit           000000018000f1b0     msvcrt:MSVCR100.dll
 0002:000001b8       __imp__encoded_null        000000018000f1b8     msvcrt:MSVCR100.dll
 0002:000001c0       __imp_free                 000000018000f1c0     msvcrt:MSVCR100.dll
 0002:000001c8       __imp__initterm_e          000000018000f1c8     msvcrt:MSVCR100.dll
 0002:000001d0       __imp__initterm            000000018000f1d0     msvcrt:MSVCR100.dll
 0002:000001d8       __imp__malloc_crt          000000018000f1d8     msvcrt:MSVCR100.dll
 0002:000001e0       __imp__onexit              000000018000f1e0     msvcrt:MSVCR100.dll
 0002:000001e8       __imp__lock                000000018000f1e8     msvcrt:MSVCR100.dll
 0002:000001f0       __imp_?terminate@@YAXXZ    000000018000f1f0     msvcrt:MSVCR100.dll
 0002:000001f8       __imp__unlock              000000018000f1f8     msvcrt:MSVCR100.dll
 0002:00000200       __imp___C_specific_handler 000000018000f200     msvcrt:MSVCR100.dll
 0002:00000208       __imp__purecall            000000018000f208     msvcrt:MSVCR100.dll
 0002:00000210       __imp_strlen               000000018000f210     msvcrt:MSVCR100.dll
 0002:00000218       __imp_??1exception@std@@UEAA@XZ 000000018000f218     msvcrt:MSVCR100.dll
 0002:00000220       __imp_?what@exception@std@@UEBAPEBDXZ 000000018000f220     msvcrt:MSVCR100.dll
 0002:00000228       __imp_??0exception@std@@QEAA@AEBQEBD@Z 000000018000f228     msvcrt:MSVCR100.dll
 0002:00000230       __imp___clean_type_info_names_internal 000000018000f230     msvcrt:MSVCR100.dll
 0002:00000238       __imp_?_type_info_dtor_internal_method@type_info@@QEAAXXZ 000000018000f238     msvcrt:MSVCR100.dll
 0002:00000240       __imp___dllonexit          000000018000f240     msvcrt:MSVCR100.dll
 0002:00000248       __imp___crt_debugger_hook  000000018000f248     msvcrt:MSVCR100.dll
 0002:00000250       __imp_??0exception@std@@QEAA@AEBV01@@Z 000000018000f250     msvcrt:MSVCR100.dll
 0002:00000258       __imp__CxxThrowException   000000018000f258     msvcrt:MSVCR100.dll
 0002:00000260       __imp_memmove              000000018000f260     msvcrt:MSVCR100.dll
 0002:00000268       __imp_memcpy               000000018000f268     msvcrt:MSVCR100.dll
 0002:00000270       __imp_wcslen               000000018000f270     msvcrt:MSVCR100.dll
 0002:00000278       __imp___CxxFrameHandler3   000000018000f278     msvcrt:MSVCR100.dll
 0002:00000280       \177MSVCR100_NULL_THUNK_DATA 000000018000f280     msvcrt:MSVCR100.dll
 0002:00000288       __imp_VariantInit          000000018000f288     oleaut32:OLEAUT32.dll
 0002:00000290       __imp_VariantClear         000000018000f290     oleaut32:OLEAUT32.dll
 0002:00000298       \177OLEAUT32_NULL_THUNK_DATA 000000018000f298     oleaut32:OLEAUT32.dll
 0002:000002a0       __imp_SendMessageW         000000018000f2a0     user32:USER32.dll
 0002:000002a8       __imp_EnableWindow         000000018000f2a8     user32:USER32.dll
 0002:000002b0       __imp_GetSubMenu           000000018000f2b0     user32:USER32.dll
 0002:000002b8       __imp_LoadMenuW            000000018000f2b8     user32:USER32.dll
 0002:000002c0       \177USER32_NULL_THUNK_DATA 000000018000f2c0     user32:USER32.dll
 0002:000002c8       __imp_?getMenuContext@AcEdUIContext@@UEAAPEAXPEBVAcRxClass@@AEBV?$AcArray@VAcDbObjectId@@V?$AcArrayMemCopyReallocator@VAcDbObjectId@@@@@@AEBV?$AcArray@V?$AcArray@VAcDbFullSubentPath@@V?$AcArrayObjectCopyReallocator@VAcDbFullSubentPath@@@@@@V?$AcArrayObjectCopyReallocator@V?$AcArray@VAcDbFullSubentPath@@V?$AcArrayObjectCopyReallocator@VAcDbFullSubentPath@@@@@@@@@@@Z 000000018000f2c8     accore:accore.dll
 0002:000002d0       __imp_?OnUpdateMenu@AcEdUIContext@@UEAAXXZ 000000018000f2d0     accore:accore.dll
 0002:000002d8       __imp_acedPostCommandPrompt 000000018000f2d8     accore:accore.dll
 0002:000002e0       __imp_?acedAddDefaultContextMenu@@YAHPEAVAcEdUIContext@@PEBXPEB_W@Z 000000018000f2e0     accore:accore.dll
 0002:000002e8       __imp_?acedRemoveDefaultContextMenu@@YAHPEAVAcEdUIContext@@@Z 000000018000f2e8     accore:accore.dll
 0002:000002f0       __imp_?isA@AcEdUIContext@@UEBAPEAVAcRxClass@@XZ 000000018000f2f0     accore:accore.dll
 0002:000002f8       __imp_adsw_acadMainWnd     000000018000f2f8     accore:accore.dll
 0002:00000300       __imp_?acDocManagerPtr@@YAPEAVAcApDocManager@@XZ 000000018000f300     accore:accore.dll
 0002:00000308       __imp_?desc@AcEdCommandStack@@SAPEAVAcRxClass@@XZ 000000018000f308     accore:accore.dll
 0002:00000310       \177accore_NULL_THUNK_DATA 000000018000f310     accore:accore.dll
 0002:00000318       __imp_?desc@AcRxDynamicLinker@@SAPEAVAcRxClass@@XZ 000000018000f318     acdb19:acdb19.dll
 0002:00000320       __imp_??0AcDb3dSolid@@QEAA@XZ 000000018000f320     acdb19:acdb19.dll
 0002:00000328       __imp_?getAt@AcDbBlockTable@@QEBA?AW4ErrorStatus@Acad@@PEB_WAEAPEAVAcDbBlockTableRecord@@W4OpenMode@AcDb@@_N@Z 000000018000f328     acdb19:acdb19.dll
 0002:00000330       __imp_?appendAcDbEntity@AcDbBlockTableRecord@@QEAA?AW4ErrorStatus@Acad@@AEAVAcDbObjectId@@PEAVAcDbEntity@@@Z 000000018000f330     acdb19:acdb19.dll
 0002:00000338       __imp_?acdbHostApplicationServices@@YAPEAVAcDbHostApplicationServices@@XZ 000000018000f338     acdb19:acdb19.dll
 0002:00000340       __imp_?getSymbolTable@AcDbDatabase@@QEAA?AW4ErrorStatus@Acad@@AEAPEAVAcDbBlockTable@@W4OpenMode@AcDb@@@Z 000000018000f340     acdb19:acdb19.dll
 0002:00000348       __imp_?close@AcDbObject@@QEAA?AW4ErrorStatus@Acad@@XZ 000000018000f348     acdb19:acdb19.dll
 0002:00000350       __imp_acutPrintf           000000018000f350     acdb19:acdb19.dll
 0002:00000358       \177acdb19_NULL_THUNK_DATA 000000018000f358     acdb19:acdb19.dll
 0002:00000360       __imp_?AppRootKey@CAcUiDialog@@UEAAPEB_WXZ 000000018000f360     acui19:acui19.dll
 0002:00000368       __imp_?EnableFloatingWindows@CAcUiDialog@@UEAAXH@Z 000000018000f368     acui19:acui19.dll
 0002:00000370       __imp_?IsMultiDocumentActivationEnabled@CAcUiDialog@@UEAAHXZ 000000018000f370     acui19:acui19.dll
 0002:00000378       __imp_?EnableMultiDocumentActivation@CAcUiDialog@@UEAAHH@Z 000000018000f378     acui19:acui19.dll
 0002:00000380       __imp_?OnDialogHelp@CAcUiDialog@@UEAAXXZ 000000018000f380     acui19:acui19.dll
 0002:00000388       __imp_?OnInitDialog@CAcUiDialog@@UEAAHXZ 000000018000f388     acui19:acui19.dll
 0002:00000390       __imp_?AppResourceInstance@CAcUiDialog@@UEAAPEAUHINSTANCE__@@XZ 000000018000f390     acui19:acui19.dll
 0002:00000398       __imp_?GetThisMessageMap@CAcUiDialog@@KAPEBUAFX_MSGMAP@@XZ 000000018000f398     acui19:acui19.dll
 0002:000003a0       __imp_?AppMainWindow@CAcUiDialog@@UEAAPEAVCWnd@@XZ 000000018000f3a0     acui19:acui19.dll
 0002:000003a8       __imp_?FindContextHelpFullPath@CAcUiDialog@@MEAAHPEB_WAEAV?$CStringT@_WV?$StrTraitMFC_DLL@_WV?$ChTraitsCRT@_W@ATL@@@@@ATL@@@Z 000000018000f3a8     acui19:acui19.dll
 0002:000003b0       __imp_?OnCancel@CAcUiDialog@@MEAAXXZ 000000018000f3b0     acui19:acui19.dll
 0002:000003b8       __imp_?OnOK@CAcUiDialog@@MEAAXXZ 000000018000f3b8     acui19:acui19.dll
 0002:000003c0       __imp_??0CAcUiDialog@@QEAA@IPEAVCWnd@@PEAUHINSTANCE__@@@Z 000000018000f3c0     acui19:acui19.dll
 0002:000003c8       __imp_??1CAcUiDialog@@UEAA@XZ 000000018000f3c8     acui19:acui19.dll
 0002:000003d0       __imp_?GetThisClass@CAcUiDialog@@SAPEAUCRuntimeClass@@XZ 000000018000f3d0     acui19:acui19.dll
 0002:000003d8       __imp_?DoDataExchange@CAcUiDialog@@MEAAXPEAVCDataExchange@@@Z 000000018000f3d8     acui19:acui19.dll
 0002:000003e0       \177acui19_NULL_THUNK_DATA 000000018000f3e0     acui19:acui19.dll
 0002:000003e8       __imp_?PreCreateWindow@CAdUiBaseDialog@@MEAAHAEAUtagCREATESTRUCTW@@@Z 000000018000f3e8     adui19:adui19.dll
 0002:000003f0       __imp_?PostNcDestroy@CAdUiBaseDialog@@MEAAXXZ 000000018000f3f0     adui19:adui19.dll
 0002:000003f8       __imp_?Create@CAdUiBaseDialog@@UEAAHIPEAVCWnd@@@Z 000000018000f3f8     adui19:adui19.dll
 0002:00000400       __imp_?Create@CAdUiBaseDialog@@UEAAHPEB_WPEAVCWnd@@@Z 000000018000f400     adui19:adui19.dll
 0002:00000408       __imp_?DoModal@CAdUiBaseDialog@@UEAA_JXZ 000000018000f408     adui19:adui19.dll
 0002:00000410       __imp_?DoAdUiMessage@CAdUiBaseDialog@@MEAA?AW4ADUI_REPLY@@W4ADUI_NOTIFY@@I_J@Z 000000018000f410     adui19:adui19.dll
 0002:00000418       __imp_?OnNotifyControlChange@CAdUiBaseDialog@@MEAA?AW4ADUI_REPLY@@I_J@Z 000000018000f418     adui19:adui19.dll
 0002:00000420       __imp_?OnNotifyControlValid@CAdUiBaseDialog@@MEAA?AW4ADUI_REPLY@@IH@Z 000000018000f420     adui19:adui19.dll
 0002:00000428       __imp_?OnNotifyGeneric@CAdUiBaseDialog@@MEAA?AW4ADUI_REPLY@@I_J@Z 000000018000f428     adui19:adui19.dll
 0002:00000430       __imp_?OnNotifyUpdateTip@CAdUiBaseDialog@@MEAA?AW4ADUI_REPLY@@PEAVCWnd@@@Z 000000018000f430     adui19:adui19.dll
 0002:00000438       __imp_?OnInitDialogBegin@CAdUiDialog@@MEAAXXZ 000000018000f438     adui19:adui19.dll
 0002:00000440       __imp_?OnInitDialogFinish@CAdUiDialog@@MEAAXXZ 000000018000f440     adui19:adui19.dll
 0002:00000448       __imp_?DoDialogHelp@CAdUiDialog@@UEAAHXZ 000000018000f448     adui19:adui19.dll
 0002:00000450       __imp_?ExchangeData@CAdUiBaseDialog@@UEAAHH@Z 000000018000f450     adui19:adui19.dll
 0002:00000458       __imp_??0CAdUiListCtrl@@QEAA@XZ 000000018000f458     adui19:adui19.dll
 0002:00000460       __imp_??1CAdUiListCtrl@@UEAA@XZ 000000018000f460     adui19:adui19.dll
 0002:00000468       __imp_?PreTranslateMessage@CAdUiBaseDialog@@UEAAHPEAUtagMSG@@@Z 000000018000f468     adui19:adui19.dll
 0002:00000470       \177adui19_NULL_THUNK_DATA 000000018000f470     adui19:adui19.dll
 0002:00000478       __imp_?DefWindowProcW@CWnd@@MEAA_JI_K_J@Z 000000018000f478     mfc100u:mfc100u.dll
 0002:00000480       __imp_?OnChildNotify@CWnd@@MEAAHI_K_JPEA_J@Z 000000018000f480     mfc100u:mfc100u.dll
 0002:00000488       __imp_?OnTouchInputs@CWnd@@MEAAHIPEAUtagTOUCHINPUT@@@Z 000000018000f488     mfc100u:mfc100u.dll
 0002:00000490       __imp_?OnTouchInput@CWnd@@MEAAHVCPoint@@HHPEAUtagTOUCHINPUT@@@Z 000000018000f490     mfc100u:mfc100u.dll
 0002:00000498       __imp_?GetGestureStatus@CWnd@@MEAAKVCPoint@@@Z 000000018000f498     mfc100u:mfc100u.dll
 0002:000004a0       __imp_?OnGestureZoom@CWnd@@MEAAHVCPoint@@J@Z 000000018000f4a0     mfc100u:mfc100u.dll
 0002:000004a8       __imp_?OnGesturePan@CWnd@@MEAAHVCPoint@@0@Z 000000018000f4a8     mfc100u:mfc100u.dll
 0002:000004b0       __imp_?OnGestureRotate@CWnd@@MEAAHVCPoint@@N@Z 000000018000f4b0     mfc100u:mfc100u.dll
 0002:000004b8       __imp_?OnGestureTwoFingerTap@CWnd@@MEAAHVCPoint@@@Z 000000018000f4b8     mfc100u:mfc100u.dll
 0002:000004c0       __imp_?OnGesturePressAndTap@CWnd@@MEAAHVCPoint@@J@Z 000000018000f4c0     mfc100u:mfc100u.dll
 0002:000004c8       __imp_?CheckAutoCenter@CDialog@@UEAAHXZ 000000018000f4c8     mfc100u:mfc100u.dll
 0002:000004d0       __imp_?IsFrameWnd@CWnd@@UEBAHXZ 000000018000f4d0     mfc100u:mfc100u.dll
 0002:000004d8       __imp_?CreateControlContainer@CWnd@@MEAAHPEAPEAVCOleControlContainer@@@Z 000000018000f4d8     mfc100u:mfc100u.dll
 0002:000004e0       __imp_?CreateControlSite@CWnd@@MEAAHPEAVCOleControlContainer@@PEAPEAVCOleControlSite@@IAEBU_GUID@@@Z 000000018000f4e0     mfc100u:mfc100u.dll
 0002:000004e8       __imp_?SetOccDialogInfo@CDialog@@MEAAHPEAU_AFX_OCC_DIALOG_INFO@@@Z 000000018000f4e8     mfc100u:mfc100u.dll
 0002:000004f0       __imp_?GetOccDialogInfo@CDialog@@MEAAPEAU_AFX_OCC_DIALOG_INFO@@XZ 000000018000f4f0     mfc100u:mfc100u.dll
 0002:000004f8       __imp_?CreateIndirect@CDialog@@UEAAHPEAXPEAVCWnd@@@Z 000000018000f4f8     mfc100u:mfc100u.dll
 0002:00000500       __imp_?CreateIndirect@CDialog@@UEAAHPEBUDLGTEMPLATE@@PEAVCWnd@@PEAX@Z 000000018000f500     mfc100u:mfc100u.dll
 0002:00000508       __imp_?OnSetFont@CDialog@@UEAAXPEAVCFont@@@Z 000000018000f508     mfc100u:mfc100u.dll
 0002:00000510       __imp_?PreInitDialog@CDialog@@MEAAXXZ 000000018000f510     mfc100u:mfc100u.dll
 0002:00000518       __imp_??0CWnd@@QEAA@XZ     000000018000f518     mfc100u:mfc100u.dll
 0002:00000520       __imp_?GetRuntimeClass@CListCtrl@@UEBAPEAUCRuntimeClass@@XZ 000000018000f520     mfc100u:mfc100u.dll
 0002:00000528       __imp_?OnCmdMsg@CCmdTarget@@UEAAHIHPEAXPEAUAFX_CMDHANDLERINFO@@@Z 000000018000f528     mfc100u:mfc100u.dll
 0002:00000530       __imp_?GetMessageMap@CListCtrl@@MEBAPEBUAFX_MSGMAP@@XZ 000000018000f530     mfc100u:mfc100u.dll
 0002:00000538       __imp_?PreCreateWindow@CWnd@@UEAAHAEAUtagCREATESTRUCTW@@@Z 000000018000f538     mfc100u:mfc100u.dll
 0002:00000540       __imp_?PreTranslateMessage@CWnd@@UEAAHPEAUtagMSG@@@Z 000000018000f540     mfc100u:mfc100u.dll
 0002:00000548       __imp_?PostNcDestroy@CWnd@@MEAAXXZ 000000018000f548     mfc100u:mfc100u.dll
 0002:00000550       __imp_?OnChildNotify@CListCtrl@@MEAAHI_K_JPEA_J@Z 000000018000f550     mfc100u:mfc100u.dll
 0002:00000558       __imp_?CheckAutoCenter@CWnd@@UEAAHXZ 000000018000f558     mfc100u:mfc100u.dll
 0002:00000560       __imp_?SetOccDialogInfo@CWnd@@MEAAHPEAU_AFX_OCC_DIALOG_INFO@@@Z 000000018000f560     mfc100u:mfc100u.dll
 0002:00000568       __imp_?GetOccDialogInfo@CWnd@@MEAAPEAU_AFX_OCC_DIALOG_INFO@@XZ 000000018000f568     mfc100u:mfc100u.dll
 0002:00000570       __imp_?EnsureStdObj@CWnd@@UEAAJXZ 000000018000f570     mfc100u:mfc100u.dll
 0002:00000578       __imp_??1CListCtrl@@UEAA@XZ 000000018000f578     mfc100u:mfc100u.dll
 0002:00000580       __imp_?GetRuntimeClass@CTreeCtrl@@UEBAPEAUCRuntimeClass@@XZ 000000018000f580     mfc100u:mfc100u.dll
 0002:00000588       __imp_?GetMessageMap@CTreeCtrl@@MEBAPEBUAFX_MSGMAP@@XZ 000000018000f588     mfc100u:mfc100u.dll
 0002:00000590       __imp_?InsertItem@CTreeCtrl@@QEAAPEAU_TREEITEM@@IPEB_WHHII_JPEAU2@2@Z 000000018000f590     mfc100u:mfc100u.dll
 0002:00000598       __imp_?UpdateData@CWnd@@QEAAHH@Z 000000018000f598     mfc100u:mfc100u.dll
 0002:000005a0       __imp_??1?$CStringT@_WV?$StrTraitMFC_DLL@_WV?$ChTraitsCRT@_W@ATL@@@@@ATL@@QEAA@XZ 000000018000f5a0     mfc100u:mfc100u.dll
 0002:000005a8       __imp_?SetItemText@CListCtrl@@QEAAHHHPEB_W@Z 000000018000f5a8     mfc100u:mfc100u.dll
 0002:000005b0       __imp_?OnWndMsg@CWnd@@MEAAHI_K_JPEA_J@Z 000000018000f5b0     mfc100u:mfc100u.dll
 0002:000005b8       __imp_?Format@?$CStringT@_WV?$StrTraitMFC_DLL@_WV?$ChTraitsCRT@_W@ATL@@@@@ATL@@QEAAXPEB_WZZ 000000018000f5b8     mfc100u:mfc100u.dll
 0002:000005c0       __imp_??0?$CStringT@_WV?$StrTraitMFC_DLL@_WV?$ChTraitsCRT@_W@ATL@@@@@ATL@@QEAA@XZ 000000018000f5c0     mfc100u:mfc100u.dll
 0002:000005c8       __imp_?DDX_Control@@YAXPEAVCDataExchange@@HAEAVCWnd@@@Z 000000018000f5c8     mfc100u:mfc100u.dll
 0002:000005d0       __imp_??0?$CStringT@_WV?$StrTraitMFC_DLL@_WV?$ChTraitsCRT@_W@ATL@@@@@ATL@@QEAA@PEB_W@Z 000000018000f5d0     mfc100u:mfc100u.dll
 0002:000005d8       __imp_??B?$CSimpleStringT@_W$00@ATL@@QEBAPEB_WXZ 000000018000f5d8     mfc100u:mfc100u.dll
 0002:000005e0       __imp_??2@YAPEAX_K@Z       000000018000f5e0     mfc100u:mfc100u.dll
 0002:000005e8       __imp_?FromHandle@CWnd@@SAPEAV1@PEAUHWND__@@@Z 000000018000f5e8     mfc100u:mfc100u.dll
 0002:000005f0       __imp_?AfxTermExtensionModule@@YAXAEAUAFX_EXTENSION_MODULE@@H@Z 000000018000f5f0     mfc100u:mfc100u.dll
 0002:000005f8       __imp_??0CDynLinkLibrary@@QEAA@AEAUAFX_EXTENSION_MODULE@@H@Z 000000018000f5f8     mfc100u:mfc100u.dll
 0002:00000600       __imp_?AfxInitExtensionModule@@YAHAEAUAFX_EXTENSION_MODULE@@PEAUHINSTANCE__@@@Z 000000018000f600     mfc100u:mfc100u.dll
 0002:00000608       __imp_?AfxGetModuleState@@YAPEAVAFX_MODULE_STATE@@XZ 000000018000f608     mfc100u:mfc100u.dll
 0002:00000610       __imp_?GetRuntimeClass@CMenu@@UEBAPEAUCRuntimeClass@@XZ 000000018000f610     mfc100u:mfc100u.dll
 0002:00000618       __imp_?DrawItem@CMenu@@UEAAXPEAUtagDRAWITEMSTRUCT@@@Z 000000018000f618     mfc100u:mfc100u.dll
 0002:00000620       __imp_?MeasureItem@CMenu@@UEAAXPEAUtagMEASUREITEMSTRUCT@@@Z 000000018000f620     mfc100u:mfc100u.dll
 0002:00000628       __imp_?DestroyMenu@CMenu@@QEAAHXZ 000000018000f628     mfc100u:mfc100u.dll
 0002:00000630       __imp_?Attach@CMenu@@QEAAHPEAUHMENU__@@@Z 000000018000f630     mfc100u:mfc100u.dll
 0002:00000638       __imp_?AfxFindResourceHandle@@YAPEAUHINSTANCE__@@PEB_W0@Z 000000018000f638     mfc100u:mfc100u.dll
 0002:00000640       __imp_?FromHandle@CMenu@@SAPEAV1@PEAUHMENU__@@@Z 000000018000f640     mfc100u:mfc100u.dll
 0002:00000648       __imp_?GetMenuStringW@CMenu@@QEBAHIAEAV?$CStringT@_WV?$StrTraitMFC_DLL@_WV?$ChTraitsCRT@_W@ATL@@@@@ATL@@I@Z 000000018000f648     mfc100u:mfc100u.dll
 0002:00000650       __imp_?Compare@?$CStringT@_WV?$StrTraitMFC_DLL@_WV?$ChTraitsCRT@_W@ATL@@@@@ATL@@QEBAHPEB_W@Z 000000018000f650     mfc100u:mfc100u.dll
 0002:00000658       __imp_?Delete@CException@@QEAAXXZ 000000018000f658     mfc100u:mfc100u.dll
 0002:00000660       __imp_?AllocSysString@?$CStringT@_WV?$StrTraitMFC_DLL@_WV?$ChTraitsCRT@_W@ATL@@@@@ATL@@QEBAPEA_WXZ 000000018000f660     mfc100u:mfc100u.dll
 0002:00000668       __imp_?GetIDispatch@CCmdTarget@@QEAAPEAUIDispatch@@H@Z 000000018000f668     mfc100u:mfc100u.dll
 0002:00000670       __imp_??0AFX_EXCEPTION_LINK@@QEAA@XZ 000000018000f670     mfc100u:mfc100u.dll
 0002:00000678       __imp_?AfxTryCleanup@@YAXXZ 000000018000f678     mfc100u:mfc100u.dll
 0002:00000680       __imp_??0COleDispatchDriver@@QEAA@PEAUIDispatch@@H@Z 000000018000f680     mfc100u:mfc100u.dll
 0002:00000688       __imp_?InvokeHelper@COleDispatchDriver@@QEAAXJGGPEAXPEBEZZ 000000018000f688     mfc100u:mfc100u.dll
 0002:00000690       __imp_?ReleaseDispatch@COleDispatchDriver@@QEAAXXZ 000000018000f690     mfc100u:mfc100u.dll
 0002:00000698       __imp_?OnDrawIconicThumbnailOrLivePreview@CWnd@@UEAAXAEAVCDC@@VCRect@@VCSize@@HAEAH@Z 000000018000f698     mfc100u:mfc100u.dll
 0002:000006a0       __imp_?EndModalLoop@CWnd@@UEAAXH@Z 000000018000f6a0     mfc100u:mfc100u.dll
 0002:000006a8       __imp_?ContinueModal@CWnd@@UEAAHXZ 000000018000f6a8     mfc100u:mfc100u.dll
 0002:000006b0       __imp_?WinHelpInternal@CWnd@@UEAAX_KI@Z 000000018000f6b0     mfc100u:mfc100u.dll
 0002:000006b8       __imp_?HtmlHelpW@CWnd@@UEAAX_KI@Z 000000018000f6b8     mfc100u:mfc100u.dll
 0002:000006c0       __imp_?WinHelpW@CWnd@@UEAAX_KI@Z 000000018000f6c0     mfc100u:mfc100u.dll
 0002:000006c8       __imp_?WindowProc@CWnd@@MEAA_JI_K_J@Z 000000018000f6c8     mfc100u:mfc100u.dll
 0002:000006d0       __imp_?OnAmbientProperty@CWnd@@UEAAHPEAVCOleControlSite@@JPEAUtagVARIANT@@@Z 000000018000f6d0     mfc100u:mfc100u.dll
 0002:000006d8       __imp_?GetSuperWndProcAddr@CWnd@@MEAAPEAP6A_JPEAUHWND__@@I_K_J@ZXZ 000000018000f6d8     mfc100u:mfc100u.dll
 0002:000006e0       __imp_?OnNotify@CWnd@@MEAAH_K_JPEA_J@Z 000000018000f6e0     mfc100u:mfc100u.dll
 0002:000006e8       __imp_?OnCommand@CWnd@@MEAAH_K_J@Z 000000018000f6e8     mfc100u:mfc100u.dll
 0002:000006f0       __imp_?CreateAccessibleProxy@CWnd@@UEAAJ_K_JPEA_J@Z 000000018000f6f0     mfc100u:mfc100u.dll
 0002:000006f8       __imp_?SetProxy@CWnd@@UEAAJPEAUIAccessibleProxy@@@Z 000000018000f6f8     mfc100u:mfc100u.dll
 0002:00000700       __imp_?put_accValue@CWnd@@UEAAJUtagVARIANT@@PEA_W@Z 000000018000f700     mfc100u:mfc100u.dll
 0002:00000708       __imp_?put_accName@CWnd@@UEAAJUtagVARIANT@@PEA_W@Z 000000018000f708     mfc100u:mfc100u.dll
 0002:00000710       __imp_?accDoDefaultAction@CWnd@@UEAAJUtagVARIANT@@@Z 000000018000f710     mfc100u:mfc100u.dll
 0002:00000718       __imp_?accHitTest@CWnd@@UEAAJJJPEAUtagVARIANT@@@Z 000000018000f718     mfc100u:mfc100u.dll
 0002:00000720       __imp_?accNavigate@CWnd@@UEAAJJUtagVARIANT@@PEAU2@@Z 000000018000f720     mfc100u:mfc100u.dll
 0002:00000728       __imp_?accLocation@CWnd@@UEAAJPEAJ000UtagVARIANT@@@Z 000000018000f728     mfc100u:mfc100u.dll
 0002:00000730       __imp_?accSelect@CWnd@@UEAAJJUtagVARIANT@@@Z 000000018000f730     mfc100u:mfc100u.dll
 0002:00000738       __imp_?get_accDefaultAction@CWnd@@UEAAJUtagVARIANT@@PEAPEA_W@Z 000000018000f738     mfc100u:mfc100u.dll
 0002:00000740       __imp_?get_accSelection@CWnd@@UEAAJPEAUtagVARIANT@@@Z 000000018000f740     mfc100u:mfc100u.dll
 0002:00000748       __imp_?get_accFocus@CWnd@@UEAAJPEAUtagVARIANT@@@Z 000000018000f748     mfc100u:mfc100u.dll
 0002:00000750       __imp_?get_accKeyboardShortcut@CWnd@@UEAAJUtagVARIANT@@PEAPEA_W@Z 000000018000f750     mfc100u:mfc100u.dll
 0002:00000758       __imp_?get_accHelpTopic@CWnd@@UEAAJPEAPEA_WUtagVARIANT@@PEAJ@Z 000000018000f758     mfc100u:mfc100u.dll
 0002:00000760       __imp_?get_accHelp@CWnd@@UEAAJUtagVARIANT@@PEAPEA_W@Z 000000018000f760     mfc100u:mfc100u.dll
 0002:00000768       __imp_?get_accParent@CWnd@@UEAAJPEAPEAUIDispatch@@@Z 000000018000f768     mfc100u:mfc100u.dll
 0002:00000770       __imp_?get_accRole@CWnd@@UEAAJUtagVARIANT@@PEAU2@@Z 000000018000f770     mfc100u:mfc100u.dll
 0002:00000778       __imp_?get_accDescription@CWnd@@UEAAJUtagVARIANT@@PEAPEA_W@Z 000000018000f778     mfc100u:mfc100u.dll
 0002:00000780       __imp_?get_accValue@CWnd@@UEAAJUtagVARIANT@@PEAPEA_W@Z 000000018000f780     mfc100u:mfc100u.dll
 0002:00000788       __imp_?get_accName@CWnd@@UEAAJUtagVARIANT@@PEAPEA_W@Z 000000018000f788     mfc100u:mfc100u.dll
 0002:00000790       __imp_?get_accChild@CWnd@@UEAAJUtagVARIANT@@PEAPEAUIDispatch@@@Z 000000018000f790     mfc100u:mfc100u.dll
 0002:00000798       __imp_?GetBuffer@?$CSimpleStringT@_W$00@ATL@@QEAAPEA_WXZ 000000018000f798     mfc100u:mfc100u.dll
 0002:000007a0       __imp_?get_accChildCount@CWnd@@UEAAJPEAJ@Z 000000018000f7a0     mfc100u:mfc100u.dll
 0002:000007a8       __imp_?GetScrollBarCtrl@CWnd@@UEBAPEAVCScrollBar@@H@Z 000000018000f7a8     mfc100u:mfc100u.dll
 0002:000007b0       __imp_?OnToolHitTest@CWnd@@UEBA_JVCPoint@@PEAUtagTOOLINFOW@@@Z 000000018000f7b0     mfc100u:mfc100u.dll
 0002:000007b8       __imp_?SetMenu@CWnd@@UEAAHPEAVCMenu@@@Z 000000018000f7b8     mfc100u:mfc100u.dll
 0002:000007c0       __imp_?GetMenu@CWnd@@UEBAPEAVCMenu@@XZ 000000018000f7c0     mfc100u:mfc100u.dll
 0002:000007c8       __imp_?CalcWindowRect@CWnd@@UEAAXPEAUtagRECT@@I@Z 000000018000f7c8     mfc100u:mfc100u.dll
 0002:000007d0       __imp_?DestroyWindow@CWnd@@UEAAHXZ 000000018000f7d0     mfc100u:mfc100u.dll
 0002:000007d8       __imp_?CreateEx@CWnd@@UEAAHKPEB_W0KHHHHPEAUHWND__@@PEAUHMENU__@@PEAX@Z 000000018000f7d8     mfc100u:mfc100u.dll
 0002:000007e0       __imp_?CreateEx@CWnd@@UEAAHKPEB_W0KAEBUtagRECT@@PEAV1@IPEAX@Z 000000018000f7e0     mfc100u:mfc100u.dll
 0002:000007e8       __imp_?Create@CWnd@@UEAAHPEB_W0KAEBUtagRECT@@PEAV1@IPEAUCCreateContext@@@Z 000000018000f7e8     mfc100u:mfc100u.dll
 0002:000007f0       __imp_?PreSubclassWindow@CWnd@@UEAAXXZ 000000018000f7f0     mfc100u:mfc100u.dll
 0002:000007f8       __imp_?GetConnectionHook@CCmdTarget@@MEAAPEAUIConnectionPoint@@AEBU_GUID@@@Z 000000018000f7f8     mfc100u:mfc100u.dll
 0002:00000800       __imp_?GetExtraConnectionPoints@CCmdTarget@@MEAAHPEAVCPtrArray@@@Z 000000018000f800     mfc100u:mfc100u.dll
 0002:00000808       __imp_?GetInterfaceHook@CCmdTarget@@UEAAPEAUIUnknown@@PEBX@Z 000000018000f808     mfc100u:mfc100u.dll
 0002:00000810       __imp_?OnCreateAggregates@CCmdTarget@@UEAAHXZ 000000018000f810     mfc100u:mfc100u.dll
 0002:00000818       __imp_?GetEventSinkMap@CCmdTarget@@MEBAPEBUAFX_EVENTSINKMAP@@XZ 000000018000f818     mfc100u:mfc100u.dll
 0002:00000820       __imp_?GetInterfaceMap@CWnd@@MEBAPEBUAFX_INTERFACEMAP@@XZ 000000018000f820     mfc100u:mfc100u.dll
 0002:00000828       __imp_?GetConnectionMap@CCmdTarget@@MEBAPEBUAFX_CONNECTIONMAP@@XZ 000000018000f828     mfc100u:mfc100u.dll
 0002:00000830       __imp_?GetDispatchMap@CCmdTarget@@MEBAPEBUAFX_DISPMAP@@XZ 000000018000f830     mfc100u:mfc100u.dll
 0002:00000838       __imp_?GetCommandMap@CCmdTarget@@MEBAPEBUAFX_OLECMDMAP@@XZ 000000018000f838     mfc100u:mfc100u.dll
 0002:00000840       __imp_?GetTypeLib@CCmdTarget@@UEAAJKPEAPEAUITypeLib@@@Z 000000018000f840     mfc100u:mfc100u.dll
 0002:00000848       __imp_?GetTypeLibCache@CCmdTarget@@UEAAPEAVCTypeLibCache@@XZ 000000018000f848     mfc100u:mfc100u.dll
 0002:00000850       __imp_?GetTypeInfoCount@CCmdTarget@@UEAAIXZ 000000018000f850     mfc100u:mfc100u.dll
 0002:00000858       __imp_?GetDispatchIID@CCmdTarget@@UEAAHPEAU_GUID@@@Z 000000018000f858     mfc100u:mfc100u.dll
 0002:00000860       __imp_?IsInvokeAllowed@CCmdTarget@@UEAAHJ@Z 000000018000f860     mfc100u:mfc100u.dll
 0002:00000868       __imp_?OnFinalRelease@CWnd@@UEAAXXZ 000000018000f868     mfc100u:mfc100u.dll
 0002:00000870       __imp_?OnCmdMsg@CDialog@@UEAAHIHPEAXPEAUAFX_CMDHANDLERINFO@@@Z 000000018000f870     mfc100u:mfc100u.dll
 0002:00000878       __imp_??1CTreeCtrl@@UEAA@XZ 000000018000f878     mfc100u:mfc100u.dll
 0002:00000880       __imp_??3@YAXPEAX@Z        000000018000f880     mfc100u:mfc100u.dll
 0002:00000888       __imp_?DrawItem@CListCtrl@@UEAAXPEAUtagDRAWITEMSTRUCT@@@Z 000000018000f888     mfc100u:mfc100u.dll
 0002:00000890       __imp_?get_accState@CWnd@@UEAAJUtagVARIANT@@PEAU2@@Z 000000018000f890     mfc100u:mfc100u.dll
 0002:00000898       \177mfc100u_NULL_THUNK_DATA 000000018000f898     mfc100u:mfc100u.dll
 0002:000008a0       __xc_a                     000000018000f8a0     msvcrt:cinitexe.obj
 0002:00000960       __xc_z                     000000018000f960     msvcrt:cinitexe.obj
 0002:00000968       __xi_a                     000000018000f968     msvcrt:cinitexe.obj
 0002:00000978       __xi_z                     000000018000f978     msvcrt:cinitexe.obj
 0002:000009a0       ??_C@_0O@MJMMEPLI@AddLineDialog?$AA@ 000000018000f9a0     AddLineDialog.obj
 0002:000009b0       ??_C@_1O@JDLOHAN@?$AAD?$AAe?$AAl?$AAe?$AAt?$AAe?$AA?$AA@ 000000018000f9b0     AddLineDialog.obj
 0002:000009c0       ??_C@_1BC@GCKHIPE@?$AAN?$AAo?$AAR?$AAe?$AAm?$AAo?$AAv?$AAe?$AA?$AA@ 000000018000f9c0     AddLineDialog.obj
 0002:000009d8       ??_C@_1BI@JFAIJMHL@?$AAF?$AAo?$AAr?$AAc?$AAe?$AAR?$AAe?$AAm?$AAo?$AAv?$AAe?$AA?$AA@ 000000018000f9d8     AddLineDialog.obj
 0002:000009f0       ??_C@_17LLMMEOJD@?$AAV?$AAa?$AAl?$AA?$AA@ 000000018000f9f0     AddLineDialog.obj
 0002:000009f8       ??_C@_13OPKGLAFF@?$AAB?$AA?$AA@ 000000018000f9f8     AddLineDialog.obj
 0002:000009fc       ??_C@_13MKMNOPIJ@?$AAD?$AA?$AA@ 000000018000f9fc     AddLineDialog.obj
 0002:00000a00       ??_C@_13LHMFKAAD@?$AAM?$AA?$AA@ 000000018000fa00     AddLineDialog.obj
 0002:00000a04       ??_C@_13HADIAKP@?$AAS?$AA?$AA@ 000000018000fa04     AddLineDialog.obj
 0002:00000a48       ?classAddLineDialog@AddLineDialog@@2UCRuntimeClass@@B 000000018000fa48     AddLineDialog.obj
 0002:00000aa8       ??_7AddLineDialog@@6B@     000000018000faa8     AddLineDialog.obj
 0002:00000e58       ??_7CListCtrl@@6B@         000000018000fe58     AddLineDialog.obj
 0002:00001138       ??_7CTreeCtrl@@6B@         0000000180010138     AddLineDialog.obj
 0002:00001408       ??_C@_19ICIDGDOD@?$FN?w?$JAS?$AA?$CD?$AA2?$AA?$AA@ 0000000180010408     AddLineDialog.obj
 0002:00001418       ??_C@_19JADGMMAN@?$FN?w?$JAS?$AA?$CD?$AA1?$AA?$AA@ 0000000180010418     AddLineDialog.obj
 0002:00001424       ??_C@_15KCICGEDL@?$FN?w?$JAS?$AA?$AA@ 0000000180010424     AddLineDialog.obj
 0002:00001430       ??_C@_17LEKNMAOP@?$JG?$DL?$JG?$JEOS?$AA?$AA@ 0000000180010430     AddLineDialog.obj
 0002:00001438       ??_C@_15DAMGLMGL@u5?$HO?$LP?$AA?$AA@ 0000000180010438     AddLineDialog.obj
 0002:00001440       ??_C@_15NMGNLGD@f?$JGl?$BE?$AA?$AA@ 0000000180010440     AddLineDialog.obj
 0002:00001448       ??_C@_19JEKIODAK@l4?$HL?$KB?$AA?$CD?$AA2?$AA?$AA@ 0000000180010448     AddLineDialog.obj
 0002:00001458       ??_C@_19IGBNEMOE@l4?$HL?$KB?$AA?$CD?$AA1?$AA?$AA@ 0000000180010458     AddLineDialog.obj
 0002:00001464       ??_C@_15CAGHHIHK@l4?$HL?$KB?$AA?$AA@ 0000000180010464     AddLineDialog.obj
 0002:0000146c       ??_C@_15JABFGFP@?$HL?$KB?$HO?$LP?$AA?$AA@ 000000018001046c     AddLineDialog.obj
 0002:00001478       ??_C@_1BI@DFBNKMAB@R?$BNY?KS?$BG?$HL?$KB?$HO?$LP?$FL?$JOO?$ILepcn?$AA?4?$AA?6?$AA?$AA@ 0000000180010478     AddLineDialog.obj
 0002:00001490       ??_C@_15KFIBJFCI@?$JK?Xz?$AL?$AA?$AA@ 0000000180010490     AddLineDialog.obj
 0002:00001498       ??_C@_17INBKHBHG@?$AAYWPh?$AH?$AA?$AA@ 0000000180010498     AddLineDialog.obj
 0002:000014a0       ??_C@_17EBLAHBOI@?$AAXWPh?$AH?$AA?$AA@ 00000001800104a0     AddLineDialog.obj
 0002:000014a8       ??_C@_15JFHLHGDD@?$HP?$BGS?w?$AA?$AA@ 00000001800104a8     AddLineDialog.obj
 0002:000014b0       ??_C@_1BI@GHPCKDIP@R?$BNY?KS?$BG?$HL?$KB?$HO?$LPepcn?$IIhY4?$AA?4?$AA?6?$AA?$AA@ 00000001800104b0     AddLineDialog.obj
 0002:000015a8       ??_C@_19MLHEBHOC@?$AA1?$AA7?$AA?4?$AA3?$AA?$AA@ 00000001800105a8     AddLineDialog.obj
 0002:000015b8       ??_C@_19CBHEOOB@?$AA2?$AA9?$AA?4?$AA6?$AA?$AA@ 00000001800105b8     AddLineDialog.obj
 0002:000015c8       ??_C@_19OACPJBBK@?$AA3?$AA0?$AA?4?$AA5?$AA?$AA@ 00000001800105c8     AddLineDialog.obj
 0002:000015d4       ??_C@_15KNBIKKIN@?$AA?$CF?$AAd?$AA?$AA@ 00000001800105d4     AddLineDialog.obj
 0002:000015e0       ??_C@_1BI@KIGIBBLF@R?$BNY?KS?$BG?$HL?$KB?$HO?$LPWPh?$AHO?a?$GAo?$AA?4?$AA?6?$AA?$AA@ 00000001800105e0     AddLineDialog.obj
 0002:00001650       ??_C@_15IALCAGAM@?$AA?$DL?$AA?5?$AA?$AA@ 0000000180010650     AddLineDialog.obj
 0002:00001698       ??_C@_1BA@DALMPENH@?$AAL?$AAM?$AAA?$AA_?$AAC?$AAU?$AAT?$AA?$AA@ 0000000180010698     CommandManager.obj
 0002:000016a8       ??_C@_1BE@MOPIBGAB@?$AAL?$AAM?$AAA?$AA_?$AAI?$AAN?$AAP?$AAU?$AAT?$AA?$AA@ 00000001800106a8     CommandManager.obj
 0002:000016c0       ??_C@_1BG@NGIFCKEO@?$AAL?$AAM?$AAA?$AA_?$AAC?$AAO?$AAN?$AAF?$AAI?$AAG?$AA?$AA@ 00000001800106c0     CommandManager.obj
 0002:000016d8       ??_C@_1BM@JLGGJOKE@?$AAL?$AAM?$AAA?$AA_?$AAC?$AAM?$AAD?$AA_?$AAG?$AAR?$AAO?$AAU?$AAP?$AA?$AA@ 00000001800106d8     CommandManager.obj
 0002:000018b8       ??_C@_1DC@CPDPAKPO@?$AAA?$AAC?$AAA?$AAD?$AA_?$AAR?$AAE?$AAG?$AAI?$AAS?$AAT?$AAE?$AAR?$AAE?$AAD?$AA_?$AAC?$AAO?$AAM?$AAM?$AAA?$AAN?$AAD?$AAS?$AA?$AA@ 00000001800108b8     CommandManager.obj
 0002:000018f0       ??_C@_19MCPOPBMN@?$AAG?$AA_?$AA?$CF?$AAs?$AA?$AA@ 00000001800108f0     CommandManager.obj
 0002:00001a18       ??_C@_1BK@LDENEHML@?$AA?$CK?$AAM?$AAo?$AAd?$AAe?$AAl?$AA_?$AAS?$AAp?$AAa?$AAc?$AAe?$AA?$AA@ 0000000180010a18     CommandManager.obj
 0002:00001b40       __real@c020000000000000    0000000180010b40     CommandManager.obj
 0002:00001b48       __real@4024000000000000    0000000180010b48     CommandManager.obj
 0002:00001cd8       __real@4020000000000000    0000000180010cd8     CommandManager.obj
 0002:00001ce0       __real@3ff0000000000000    0000000180010ce0     CommandManager.obj
 0002:00001ce8       __real@403e000000000000    0000000180010ce8     CommandManager.obj
 0002:00001e50       ??_C@_0BI@CFPLBAOH@invalid?5string?5position?$AA@ 0000000180010e50     CommandManager.obj
 0002:00001ee0       ??_C@_0BA@JFNIOLAK@string?5too?5long?$AA@ 0000000180010ee0     CommandManager.obj
 0002:00001ef0       ??_C@_0BM@PAPJHAGI@invalid?5map?1set?$DMT?$DO?5iterator?$AA@ 0000000180010ef0     CommandManager.obj
 0002:00001f78       ??_7bad_alloc@std@@6B@     0000000180010f78     CommandManager.obj
 0002:00002050       ??_C@_0BE@JONHPENG@map?1set?$DMT?$DO?5too?5long?$AA@ 0000000180011050     CommandManager.obj
 0002:00002120       ??_C@_15DGOBMGKA@N?6l4?$AA?$AA@ 0000000180011120     GlobalDataConfig.obj
 0002:00002128       ??_C@_15PNLNBFAF@N?$ALl4?$AA?$AA@ 0000000180011128     GlobalDataConfig.obj
 0002:00002130       ??_C@_15OEJIPIJP@W?$AG_b?$AA?$AA@ 0000000180011130     GlobalDataConfig.obj
 0002:00002138       ??_C@_15MCELHOMM@w?i_b?$AA?$AA@ 0000000180011138     GlobalDataConfig.obj
 0002:00002140       ??_C@_15PIDNGNAH@k?k?$HMs?$AA?$AA@ 0000000180011140     GlobalDataConfig.obj
 0002:00002148       ??_C@_15OENKOBCP@S?$JI?$HMs?$AA?$AA@ 0000000180011148     GlobalDataConfig.obj
 0002:00002150       ??_C@_13PKNKLOKF@?$HMs?$AA?$AA@ 0000000180011150     GlobalDataConfig.obj
 0002:000022f8       ??_C@_19GLAGMAHE@mK?$IL?U?$HL?$KB?$JAS?$AA?$AA@ 00000001800112f8     LineConfigDataManager.obj
 0002:00002304       ??_C@_15EGOOICMH@?$AA1?$AA5?$AA?$AA@ 0000000180011304     LineConfigDataManager.obj
 0002:0000230c       ??_C@_13BJEOCIHA@?$AA5?$AA?$AA@ 000000018001130c     LineConfigDataManager.obj
 0002:00002310       ??_C@_19NIHHMLOI@mK?$IL?Uepcn?$AA?$AA@ 0000000180011310     LineConfigDataManager.obj
 0002:00002348       ??_C@_0BD@OLBABOEK@vector?$DMT?$DO?5too?5long?$AA@ 0000000180011348     LineConfigDataManager.obj
 0002:00002418       ??_C@_00CNPNBAHC@?$AA@     0000000180011418     LineConfigDataManager.obj
 0002:00002448       ?npos@?$basic_string@_WU?$char_traits@_W@std@@V?$allocator@_W@2@@std@@2_KB 0000000180011448     CommandManager.obj
 0002:00002448       ?npos@?$basic_string@DU?$char_traits@D@std@@V?$allocator@D@2@@std@@2_KB 0000000180011448     LineConfigDataManager.obj
 0002:000024a0       ??_C@_0BB@DAFJANOH@LineConfigDialog?$AA@ 00000001800114a0     LineConfigDialog.obj
 0002:000024f8       ?classLineConfigDialog@LineConfigDialog@config@assistent@guch@com@@2UCRuntimeClass@@B 00000001800114f8     LineConfigDialog.obj
 0002:00002558       ??_7LineConfigDialog@config@assistent@guch@com@@6B@ 0000000180011558     LineConfigDialog.obj
 0002:00002928       ??_C@_15BMBOLFLK@c?O?$IP?p?$AA?$AA@ 0000000180011928     LineConfigDialog.obj
 0002:00002930       ??_C@_15HPHFDIBO@SUOM?$AA?$AA@ 0000000180011930     LineConfigDialog.obj
 0002:00002938       ??_C@_19OKHDIBCK@g?7eH?$ID?$ADV?t?$AA?$AA@ 0000000180011938     LineConfigDialog.obj
 0002:00002948       ??_C@_19PMOJGCMB@e?$KN?$JHbY?8?2?$AP?$AA?$AA@ 0000000180011948     LineConfigDialog.obj
 0002:00002958       ??_C@_19HOJFGGEE@e?$KN?$JHb_br?$LG?$AA?$AA@ 0000000180011958     LineConfigDialog.obj
 0002:00002964       ??_C@_15EAFBKHJP@?$HM?$HLW?$IL?$AA?$AA@ 0000000180011964     LineConfigDialog.obj
 0002:0000296c       ??_C@_15OCHGGBPB@T?$ANy?p?$AA?$AA@ 000000018001196c     LineConfigDialog.obj
 0002:00002974       ??_C@_15FDLDDHAM@?$FO?$IPS?w?$AA?$AA@ 0000000180011974     LineConfigDialog.obj
 0002:00002980       ??_C@_1BI@DCOAEANL@R?$BNY?KS?$BG?$HL?$KB?$HO?$LP?$JBM?$HPnepcn?$AA?4?$AA?6?$AA?$AA@ 0000000180011980     LineConfigDialog.obj
 0002:00002c00       ??_C@_1BM@DLIONCOL@?$AAD?$AAy?$AAn?$AAa?$AAm?$AAi?$AAc?$AAL?$AAi?$AAn?$AAk?$AAe?$AAr?$AA?$AA@ 0000000180011c00     LineManageAssitant.obj
 0002:00002c88       ??_C@_1BC@KFMGBIPM@N?$DL?$ID?$NMSUg?$IE?$JA?5?$FL?$IMb?$BA0?$AC?$AA?$AA@ 0000000180011c88     MenuLMAMain.obj
 0002:00002ca0       ??_C@_1BC@CPCGJJHB@_?$AAY?Kg?$IE?$JA?5N?$DL?$ID?$NMSU0?$AC?$AA?$AA@ 0000000180011ca0     MenuLMAMain.obj
 0002:00002cc8       ??_7MenuLMAMain@@6B@       0000000180011cc8     MenuLMAMain.obj
 0002:00002d28       ??_7CMenu@@6B@             0000000180011d28     MenuLMAMain.obj
 0002:00002d98       ??_7AcEdUIContext@@6B@     0000000180011d98     MenuLMAMain.obj
 0002:00002e18       ??_C@_1M@DGBLKHMN@_?$JHR0?$FLP?$ID?$NMSU?$AA?$AA@ 0000000180011e18     MenuLMAMain.obj
 0002:00002f08       ??_C@_1BM@HCNNHAOB@?$AA?6?$GA?$KI?$FN?r?$HO?O?$JA?7S?VN?$IG?$ID?$NMSU?$AA?3?$AA?$CF?$AAs?$AA?6?$AA?$AA@ 0000000180011f08     MenuLMAMain.obj
 0002:00002f28       ??_C@_19EBCIDIBE@u?$BPb?$BAR?$AHV?$PO?$AA?$AA@ 0000000180011f28     MenuLMAMain.obj
 0002:00002f38       ??_C@_19CONNEHOM@OM?$HPn_UQe?$AA?$AA@ 0000000180011f38     MenuLMAMain.obj
 0002:00002f48       ??_C@_19IDEOOLBA@?$HM?$HLW?$IL?$FL?$JKNI?$AA?$AA@ 0000000180011f48     MenuLMAMain.obj
 0002:00002f98       _pRawDllMain               0000000180011f98     MenuManager.obj
 0002:00002ff0       ??_C@_1BA@CLGDIDIK@?$ID?$NMSUR?$KA?$IP?$HNb?$BAR?$JP?$AA?6?$AA?$AA@ 0000000180011ff0     MenuManager.obj
 0002:00003000       ??_C@_1O@NBOIINFA@?$HL?$KB?$HO?$LP?$IP?$IFR?$KJ?$HM?$PL?$HO?$NP?$AA?$AA@ 0000000180012000     MenuManager.obj
 0002:00003010       ??_C@_1BA@LAFNBPFI@?$ID?$NMSUSx?$IP?$HNb?$BAR?$JP?$AA?6?$AA?$AA@ 0000000180012010     MenuManager.obj
 0002:00003020       ??_C@_1BI@BJEHGNLL@?$IP?$IFR?$KJ?$HM?$PL?$HO?$NP?$ID?$NMSU_?$AAY?KSx?$IP?$HN?$AA?6?$AA?$AA@ 0000000180012020     MenuManager.obj
 0002:000034b8       ??_C@_17MJEANDKP@?$AA?$CF?$AAs?$AA?6?$AA?$AA@ 00000001800124b8     MenuManager.obj
 0002:00003ae0       ??_7type_info@@6B@         0000000180012ae0     msvcrt:ti_inst.obj
 0002:00003ae8       _pDefaultRawDllMain        0000000180012ae8     msvcrt:crtdll.obj
 0002:00003af0       ??_C@_0BP@OGBCLIBO@Stack?5around?5_alloca?5corrupted?$AA@ 0000000180012af0     msvcrt:_userapi_.obj
 0002:00003b10       ??_C@_0CK@CNLNOEPB@Local?5variable?5used?5before?5initi@ 0000000180012b10     msvcrt:_userapi_.obj
 0002:00003b40       ??_C@_0BI@CIGMDCBH@Stack?5memory?5corruption?$AA@ 0000000180012b40     msvcrt:_userapi_.obj
 0002:00003b58       ??_C@_0CK@FEGOIOPB@Cast?5to?5smaller?5type?5causing?5los@ 0000000180012b58     msvcrt:_userapi_.obj
 0002:00003b88       ??_C@_0BJ@HEGAHDFO@Stack?5pointer?5corruption?$AA@ 0000000180012b88     msvcrt:_userapi_.obj
 0002:00003bd0       ??_C@_0BO@GNIAFIKK@Unknown?5Runtime?5Check?5Error?6?$AN?$AA@ 0000000180012bd0     msvcrt:_error_.obj
 0002:00003bf0       ??_C@_0CM@NGINOKPC@Stack?5memory?5around?5_alloca?5was?5@ 0000000180012bf0     msvcrt:_error_.obj
 0002:00003c20       ??_C@_0DG@HKJMLLLP@A?5local?5variable?5was?5used?5before@ 0000000180012c20     msvcrt:_error_.obj
 0002:00003c58       ??_C@_0BN@FFOINMNJ@Stack?5memory?5was?5corrupted?6?$AN?$AA@ 0000000180012c58     msvcrt:_error_.obj
 0002:00003c80       ??_C@_0BBN@GPMLNJCF@A?5cast?5to?5a?5smaller?5data?5type?5ha@ 0000000180012c80     msvcrt:_error_.obj
 0002:00003da0       ??_C@_0NN@NGPKDKPD@The?5value?5of?5ESP?5was?5not?5properl@ 0000000180012da0     msvcrt:_error_.obj
 0002:00003f40       ??_C@_0CA@IODNCDPG@Run?9Time?5Check?5Failure?5?$CD?$CFd?5?9?5?$CFs?$AA@ 0000000180012f40     msvcrt:_error_.obj
 0002:00003f60       ??_C@_0BE@GNBOBNCK@Unknown?5Module?5Name?$AA@ 0000000180012f60     msvcrt:_error_.obj
 0002:00003f78       ??_C@_0BB@PFFGGCJP@Unknown?5Filename?$AA@ 0000000180012f78     msvcrt:_error_.obj
 0002:00003f90       ??_C@_1EA@NFKNIFJP@?$AAR?$AAu?$AAn?$AA?9?$AAT?$AAi?$AAm?$AAe?$AA?5?$AAC?$AAh?$AAe?$AAc?$AAk?$AA?5?$AAF?$AAa?$AAi?$AAl?$AAu?$AAr?$AAe?$AA?5?$AA?$CD?$AA?$CF?$AAd?$AA?5?$AA?9?$AA?5?$AA?$CF?$AAs?$AA?$AA@ 0000000180012f90     msvcrt:_error_.obj
 0002:00003fd0       ??_C@_1GM@OLMCBDMB@?$AAR?$AAu?$AAn?$AAt?$AAi?$AAm?$AAe?$AA?5?$AAC?$AAh?$AAe?$AAc?$AAk?$AA?5?$AAE?$AAr?$AAr?$AAo?$AAr?$AA?4?$AA?6?$AA?$AN?$AA?5?$AAU?$AAn?$AAa?$AAb?$AAl?$AAe?$AA?5?$AAt?$AAo@ 0000000180012fd0     msvcrt:_error_.obj
 0002:00004040       ??_C@_0CG@IAFNJNEE@Stack?5corrupted?5near?5unknown?5var@ 0000000180013040     msvcrt:_error_.obj
 0002:00004098       ??_C@_1CK@HHHCOJPD@?$AAE?$AAn?$AAv?$AAi?$AAr?$AAo?$AAn?$AAm?$AAe?$AAn?$AAt?$AAD?$AAi?$AAr?$AAe?$AAc?$AAt?$AAo?$AAr?$AAy?$AA?$AA@ 0000000180013098     msvcrt:_pdblkup_.obj
 0002:000040d0       ??_C@_1FM@DNCABAP@?$AAS?$AAO?$AAF?$AAT?$AAW?$AAA?$AAR?$AAE?$AA?2?$AAM?$AAi?$AAc?$AAr?$AAo?$AAs?$AAo?$AAf?$AAt?$AA?2?$AAV?$AAi?$AAs?$AAu?$AAa?$AAl?$AAS?$AAt?$AAu?$AAd?$AAi?$AAo?$AA?2@ 00000001800130d0     msvcrt:_pdblkup_.obj
 0002:00004130       ??_C@_0M@HLOHPNFA@RegCloseKey?$AA@ 0000000180013130     msvcrt:_pdblkup_.obj
 0002:00004140       ??_C@_0BB@GLNAEDBD@RegQueryValueExW?$AA@ 0000000180013140     msvcrt:_pdblkup_.obj
 0002:00004158       ??_C@_0O@COHOBMLB@RegOpenKeyExW?$AA@ 0000000180013158     msvcrt:_pdblkup_.obj
 0002:00004168       ??_C@_1BK@GAEMIDIL@?$AAA?$AAD?$AAV?$AAA?$AAP?$AAI?$AA3?$AA2?$AA?4?$AAD?$AAL?$AAL?$AA?$AA@ 0000000180013168     msvcrt:_pdblkup_.obj
 0002:00004184       ??_C@_01KDCPPGHE@r?$AA@    0000000180013184     msvcrt:_pdblkup_.obj
 0002:00004188       ??_C@_0BB@KCIACLNC@PDBOpenValidate5?$AA@ 0000000180013188     msvcrt:_pdblkup_.obj
 0002:00004210       ??_R4AddLineDialog@@6B@    0000000180013210     AddLineDialog.obj
 0002:00004238       ??_R3AddLineDialog@@8      0000000180013238     AddLineDialog.obj
 0002:00004250       ??_R2AddLineDialog@@8      0000000180013250     AddLineDialog.obj
 0002:00004298       ??_R1A@?0A@EA@AddLineDialog@@8 0000000180013298     AddLineDialog.obj
 0002:000042c0       ??_R1A@?0A@EA@CAcUiDialog@@8 00000001800132c0     AddLineDialog.obj
 0002:000042e8       ??_R3CAcUiDialog@@8        00000001800132e8     AddLineDialog.obj
 0002:00004300       ??_R2CAcUiDialog@@8        0000000180013300     AddLineDialog.obj
 0002:00004340       ??_R1A@?0A@EA@CAdUiDialog@@8 0000000180013340     AddLineDialog.obj
 0002:00004368       ??_R3CAdUiDialog@@8        0000000180013368     AddLineDialog.obj
 0002:00004380       ??_R2CAdUiDialog@@8        0000000180013380     AddLineDialog.obj
 0002:000043b8       ??_R1A@?0A@EA@CAdUiBaseDialog@@8 00000001800133b8     AddLineDialog.obj
 0002:000043e0       ??_R3CAdUiBaseDialog@@8    00000001800133e0     AddLineDialog.obj
 0002:000043f8       ??_R2CAdUiBaseDialog@@8    00000001800133f8     AddLineDialog.obj
 0002:00004428       ??_R1A@?0A@EA@CDialog@@8   0000000180013428     AddLineDialog.obj
 0002:00004450       ??_R3CDialog@@8            0000000180013450     AddLineDialog.obj
 0002:00004468       ??_R2CDialog@@8            0000000180013468     AddLineDialog.obj
 0002:00004490       ??_R1A@?0A@EA@CWnd@@8      0000000180013490     AddLineDialog.obj
 0002:000044b8       ??_R3CWnd@@8               00000001800134b8     AddLineDialog.obj
 0002:000044d0       ??_R2CWnd@@8               00000001800134d0     AddLineDialog.obj
 0002:000044f0       ??_R1A@?0A@EA@CCmdTarget@@8 00000001800134f0     AddLineDialog.obj
 0002:00004518       ??_R3CCmdTarget@@8         0000000180013518     AddLineDialog.obj
 0002:00004530       ??_R2CCmdTarget@@8         0000000180013530     AddLineDialog.obj
 0002:00004548       ??_R1A@?0A@EA@CObject@@8   0000000180013548     AddLineDialog.obj
 0002:00004570       ??_R3CObject@@8            0000000180013570     AddLineDialog.obj
 0002:00004588       ??_R2CObject@@8            0000000180013588     AddLineDialog.obj
 0002:00004598       ??_R4CListCtrl@@6B@        0000000180013598     AddLineDialog.obj
 0002:000045c0       ??_R3CListCtrl@@8          00000001800135c0     AddLineDialog.obj
 0002:000045d8       ??_R2CListCtrl@@8          00000001800135d8     AddLineDialog.obj
 0002:00004600       ??_R1A@?0A@EA@CListCtrl@@8 0000000180013600     AddLineDialog.obj
 0002:00004628       ??_R4CTreeCtrl@@6B@        0000000180013628     AddLineDialog.obj
 0002:00004650       ??_R3CTreeCtrl@@8          0000000180013650     AddLineDialog.obj
 0002:00004668       ??_R2CTreeCtrl@@8          0000000180013668     AddLineDialog.obj
 0002:00004690       ??_R1A@?0A@EA@CTreeCtrl@@8 0000000180013690     AddLineDialog.obj
 0002:000046b8       ??_R4bad_alloc@std@@6B@    00000001800136b8     CommandManager.obj
 0002:000046e0       ??_R3bad_alloc@std@@8      00000001800136e0     CommandManager.obj
 0002:000046f8       ??_R2bad_alloc@std@@8      00000001800136f8     CommandManager.obj
 0002:00004710       ??_R1A@?0A@EA@bad_alloc@std@@8 0000000180013710     CommandManager.obj
 0002:00004738       ??_R1A@?0A@EA@exception@std@@8 0000000180013738     CommandManager.obj
 0002:00004760       ??_R3exception@std@@8      0000000180013760     CommandManager.obj
 0002:00004778       ??_R2exception@std@@8      0000000180013778     CommandManager.obj
 0002:00004788       ??_R4LineConfigDialog@config@assistent@guch@com@@6B@ 0000000180013788     LineConfigDialog.obj
 0002:000047b0       ??_R3LineConfigDialog@config@assistent@guch@com@@8 00000001800137b0     LineConfigDialog.obj
 0002:000047d0       ??_R2LineConfigDialog@config@assistent@guch@com@@8 00000001800137d0     LineConfigDialog.obj
 0002:00004818       ??_R1A@?0A@EA@LineConfigDialog@config@assistent@guch@com@@8 0000000180013818     LineConfigDialog.obj
 0002:00004840       ??_R4MenuLMAMain@@6B@      0000000180013840     MenuLMAMain.obj
 0002:00004868       ??_R3MenuLMAMain@@8        0000000180013868     MenuLMAMain.obj
 0002:00004880       ??_R2MenuLMAMain@@8        0000000180013880     MenuLMAMain.obj
 0002:000048a0       ??_R1A@?0A@EA@MenuLMAMain@@8 00000001800138a0     MenuLMAMain.obj
 0002:000048c8       ??_R1A@?0A@EA@AcEdUIContext@@8 00000001800138c8     MenuLMAMain.obj
 0002:000048f0       ??_R3AcEdUIContext@@8      00000001800138f0     MenuLMAMain.obj
 0002:00004908       ??_R2AcEdUIContext@@8      0000000180013908     MenuLMAMain.obj
 0002:00004920       ??_R1A@?0A@EA@AcRxObject@@8 0000000180013920     MenuLMAMain.obj
 0002:00004948       ??_R3AcRxObject@@8         0000000180013948     MenuLMAMain.obj
 0002:00004960       ??_R2AcRxObject@@8         0000000180013960     MenuLMAMain.obj
 0002:00004970       ??_R4CMenu@@6B@            0000000180013970     MenuLMAMain.obj
 0002:00004998       ??_R3CMenu@@8              0000000180013998     MenuLMAMain.obj
 0002:000049b0       ??_R2CMenu@@8              00000001800139b0     MenuLMAMain.obj
 0002:000049c8       ??_R1A@?0A@EA@CMenu@@8     00000001800139c8     MenuLMAMain.obj
 0002:000049f0       ??_R4AcEdUIContext@@6B@    00000001800139f0     MenuLMAMain.obj
 0002:00004a18       ??_R4type_info@@6B@        0000000180013a18     msvcrt:ti_inst.obj
 0002:00004a40       ??_R3type_info@@8          0000000180013a40     msvcrt:ti_inst.obj
 0002:00004a58       ??_R2type_info@@8          0000000180013a58     msvcrt:ti_inst.obj
 0002:00004a68       ??_R1A@?0A@EA@type_info@@8 0000000180013a68     msvcrt:ti_inst.obj
 0002:00004a90       __rtc_iaa                  0000000180013a90     msvcrt:_initsect_.obj
 0002:00004a98       __rtc_izz                  0000000180013a98     msvcrt:_initsect_.obj
 0002:00004aa0       __rtc_taa                  0000000180013aa0     msvcrt:_initsect_.obj
 0002:00004aa8       __rtc_tzz                  0000000180013aa8     msvcrt:_initsect_.obj
 0002:00005ce0       _TI2?AVbad_alloc@std@@     0000000180014ce0     CommandManager.obj
 0002:00005d00       _CTA2?AVbad_alloc@std@@    0000000180014d00     CommandManager.obj
 0002:00005d18       _CT??_R0?AVbad_alloc@std@@@8??0bad_alloc@std@@QEAA@AEBV01@@Z24 0000000180014d18     CommandManager.obj
 0002:00005d40       _CT??_R0?AVexception@std@@@8??0exception@std@@QEAA@AEBV01@@Z24 0000000180014d40     CommandManager.obj
 0002:00005d68       __IMPORT_DESCRIPTOR_accore 0000000180014d68     accore:accore.dll
 0002:00005d7c       __IMPORT_DESCRIPTOR_ACAD   0000000180014d7c     acad:ACAD.exe
 0002:00005d90       __IMPORT_DESCRIPTOR_acui19 0000000180014d90     acui19:acui19.dll
 0002:00005da4       __IMPORT_DESCRIPTOR_adui19 0000000180014da4     adui19:adui19.dll
 0002:00005db8       __IMPORT_DESCRIPTOR_Ac1st19 0000000180014db8     ac1st19:Ac1st19.dll
 0002:00005dcc       __IMPORT_DESCRIPTOR_acdb19 0000000180014dcc     acdb19:acdb19.dll
 0002:00005de0       __IMPORT_DESCRIPTOR_AcGe19 0000000180014de0     acge19:AcGe19.dll
 0002:00005df4       __IMPORT_DESCRIPTOR_USER32 0000000180014df4     user32:USER32.dll
 0002:00005e08       __IMPORT_DESCRIPTOR_OLEAUT32 0000000180014e08     oleaut32:OLEAUT32.dll
 0002:00005e1c       __IMPORT_DESCRIPTOR_mfc100u 0000000180014e1c     mfc100u:mfc100u.dll
 0002:00005e30       __IMPORT_DESCRIPTOR_MSVCR100 0000000180014e30     msvcrt:MSVCR100.dll
 0002:00005e44       __IMPORT_DESCRIPTOR_MSVCP100 0000000180014e44     msvcprt:MSVCP100.dll
 0002:00005e58       __IMPORT_DESCRIPTOR_KERNEL32 0000000180014e58     kernel32:KERNEL32.dll
 0002:00005e6c       __NULL_IMPORT_DESCRIPTOR   0000000180014e6c     accore:accore.dll
 0003:00000000       ??_R0?AVAddLineDialog@@@8  0000000180017000     AddLineDialog.obj
 0003:00000028       ??_R0?AVCAcUiDialog@@@8    0000000180017028     AddLineDialog.obj
 0003:00000050       ??_R0?AVCAdUiDialog@@@8    0000000180017050     AddLineDialog.obj
 0003:00000078       ??_R0?AVCAdUiBaseDialog@@@8 0000000180017078     AddLineDialog.obj
 0003:000000a0       ??_R0?AVCDialog@@@8        00000001800170a0     AddLineDialog.obj
 0003:000000c0       ??_R0?AVCWnd@@@8           00000001800170c0     AddLineDialog.obj
 0003:000000e0       ??_R0?AVCCmdTarget@@@8     00000001800170e0     AddLineDialog.obj
 0003:00000108       ??_R0?AVCObject@@@8        0000000180017108     AddLineDialog.obj
 0003:00000128       ??_R0?AVCListCtrl@@@8      0000000180017128     AddLineDialog.obj
 0003:00000148       ??_R0?AVCTreeCtrl@@@8      0000000180017148     AddLineDialog.obj
 0003:00000168       ?CMD_GROUP@CommandManager@@2PEB_WEB 0000000180017168     CommandManager.obj
 0003:00000170       ?CMD_LINE_CONFIG@CommandManager@@2PEB_WEB 0000000180017170     CommandManager.obj
 0003:00000178       ?CMD_LINE_INPUT@CommandManager@@2PEB_WEB 0000000180017178     CommandManager.obj
 0003:00000180       ?CMD_LIEN_CUT@CommandManager@@2PEB_WEB 0000000180017180     CommandManager.obj
 0003:00000188       ??_R0?AVbad_alloc@std@@@8  0000000180017188     CommandManager.obj
 0003:000001b0       ??_R0?AVexception@std@@@8  00000001800171b0     CommandManager.obj
 0003:000001e0       ??_R0?AVLineConfigDialog@config@assistent@guch@com@@@8 00000001800171e0     LineConfigDialog.obj
 0003:00000228       ?m_extensionModule@CAcModuleResourceOverride@@0AEAVCAcExtensionModule@@EA 0000000180017228     LineManageAssitant.obj
 0003:00000230       ??_R0?AVMenuLMAMain@@@8    0000000180017230     MenuLMAMain.obj
 0003:00000258       ??_R0?AVAcEdUIContext@@@8  0000000180017258     MenuLMAMain.obj
 0003:00000280       ??_R0?AVAcRxObject@@@8     0000000180017280     MenuLMAMain.obj
 0003:000002a8       ??_R0?AVCMenu@@@8          00000001800172a8     MenuLMAMain.obj
 0003:000002c8       ??_R0PEAVCOleDispatchException@@@8 00000001800172c8     MenuManager.obj
 0003:000002f8       ?parms@?1??Item@CAcadMenuGroups@@QEAAPEAUIDispatch@@UtagVARIANT@@@Z@4PAEA 00000001800172f8     MenuManager.obj
 0003:000002fc       ?parms@?1??AddMenuItem@CAcadPopupMenu@@QEAAPEAUIDispatch@@UtagVARIANT@@PEB_W1@Z@4PAEA 00000001800172fc     MenuManager.obj
 0003:00000300       ?parms@?1??AddSeparator@CAcadPopupMenu@@QEAAPEAUIDispatch@@UtagVARIANT@@@Z@4PAEA 0000000180017300     MenuManager.obj
 0003:00000304       ?parms@?1??InsertInMenuBar@CAcadPopupMenu@@QEAAXUtagVARIANT@@@Z@4PAEA 0000000180017304     MenuManager.obj
 0003:00000308       ?parms@?1??Item@CAcadPopupMenus@@QEAAPEAUIDispatch@@UtagVARIANT@@@Z@4PAEA 0000000180017308     MenuManager.obj
 0003:0000030c       ?parms@?1??Add@CAcadPopupMenus@@QEAAPEAUIDispatch@@PEB_W@Z@4PAEA 000000018001730c     MenuManager.obj
 0003:00000310       ?parms@?1??RemoveMenuFromMenuBar@CAcadPopupMenus@@QEAAXUtagVARIANT@@@Z@4PAEA 0000000180017310     MenuManager.obj
 0003:00000318       ??_R0?AVtype_info@@@8      0000000180017318     msvcrt:ti_inst.obj
 0003:00000338       __security_cookie          0000000180017338     msvcrt:gs_cookie.obj
 0003:00000340       __security_cookie_complement 0000000180017340     msvcrt:gs_cookie.obj
 0003:00000348       _fltused                   0000000180017348     msvcrt:dllsupp.obj
 0003:00000350       ?_RTC_ErrorLevels@@3PAHA   0000000180017350     msvcrt:_error_.obj
 0003:00000364       __native_dllmain_reason    0000000180017364     msvcrt:natstart.obj
 0003:00000368       __native_vcclrit_reason    0000000180017368     msvcrt:natstart.obj
 0003:00000698       ?gCmdManager@CommandManager@@2PEAV1@EA 0000000180017698     CommandManager.obj
 0003:00000710       ?KIND_LINE@GlobalData@data@assistent@guch@com@@2V?$basic_string@_WU?$char_traits@_W@std@@V?$allocator@_W@2@@std@@B 0000000180017710     GlobalDataConfig.obj
 0003:00000738       ?LINE_UNIT_MM@GlobalData@data@assistent@guch@com@@2V?$basic_string@_WU?$char_traits@_W@std@@V?$allocator@_W@2@@std@@B 0000000180017738     GlobalDataConfig.obj
 0003:00000760       ?LINE_CATEGORY_XIASHUI@GlobalData@data@assistent@guch@com@@2V?$basic_string@_WU?$char_traits@_W@std@@V?$allocator@_W@2@@std@@B 0000000180017760     GlobalDataConfig.obj
 0003:00000788       ?KIND_SEPERATOR@GlobalData@data@assistent@guch@com@@2V?$basic_string@_WU?$char_traits@_W@std@@V?$allocator@_W@2@@std@@B 0000000180017788     GlobalDataConfig.obj
 0003:000007b0       ?LINE_SHAPE_SQUARE@GlobalData@data@assistent@guch@com@@2V?$basic_string@_WU?$char_traits@_W@std@@V?$allocator@_W@2@@std@@B 00000001800177b0     GlobalDataConfig.obj
 0003:000007d8       ?LINE_CATEGORY_SHANGSHUI@GlobalData@data@assistent@guch@com@@2V?$basic_string@_WU?$char_traits@_W@std@@V?$allocator@_W@2@@std@@B 00000001800177d8     GlobalDataConfig.obj
 0003:00000800       ?LINE_SHAPE_CIRCLE@GlobalData@data@assistent@guch@com@@2V?$basic_string@_WU?$char_traits@_W@std@@V?$allocator@_W@2@@std@@B 0000000180017800     GlobalDataConfig.obj
 0003:00000828       ?LINE_UNIT_CM@GlobalData@data@assistent@guch@com@@2V?$basic_string@_WU?$char_traits@_W@std@@V?$allocator@_W@2@@std@@B 0000000180017828     GlobalDataConfig.obj
 0003:00000850       ?LINE_UNIT_M@GlobalData@data@assistent@guch@com@@2V?$basic_string@_WU?$char_traits@_W@std@@V?$allocator@_W@2@@std@@B 0000000180017850     GlobalDataConfig.obj
 0003:00000878       ?LINE_CATEGORY_NUANQI@GlobalData@data@assistent@guch@com@@2V?$basic_string@_WU?$char_traits@_W@std@@V?$allocator@_W@2@@std@@B 0000000180017878     GlobalDataConfig.obj
 0003:00000980       ?instance@LineConfigDataManager@config@assistent@guch@com@@0PEAV12345@EA 0000000180017980     LineConfigDataManager.obj
 0003:00000988       ?PERSISTENT_FILE@LineConfigDataManager@config@assistent@guch@com@@2V?$basic_string@DU?$char_traits@D@std@@V?$allocator@D@2@@std@@B 0000000180017988     LineConfigDataManager.obj
 0003:00000ac0       ?theArxDLL@@3VCAcExtensionModule@@A 0000000180017ac0     LineManageAssitant.obj
 0003:00000b70       ?_hdllInstance@@3PEAUHINSTANCE__@@EA 0000000180017b70     MenuLMAMain.obj
 0003:00000b80       __afxForceEXTDLL           0000000180017b80     MenuManager.obj
 0003:00000bf0       ?gMenuManager@MenuManager@@0PEAV1@EA 0000000180017bf0     MenuManager.obj
 0003:00000c70       __afxForceEXCLUDE          0000000180017c70     mfcs100u:nolib.obj
 0003:00000c74       __afxForceSTDAFX           0000000180017c74     mfcs100u:stdafx.obj
 0003:00000c90       ?wsprintffp@@3P6AHPEADPEBDZZEA 0000000180017c90     msvcrt:_error_.obj
 0003:00001210       ?__type_info_root_node@@3U__type_info_node@@A 0000000180018210     msvcrt:tncleanup.obj
 0003:00001230       __native_startup_state     0000000180018230     <common>
 0003:00001238       __native_startup_lock      0000000180018238     <common>
 0003:00001240       __dyn_tls_init_callback    0000000180018240     <common>
 0003:00001248       __onexitend                0000000180018248     <common>
 0003:00001250       __onexitbegin              0000000180018250     <common>

 entry point at        0001:0000b58c

 Static symbols

 0001:00008c00       ?initApp@@YAXPEAX@Z        0000000180009c00 f   LineManageAssitant.obj
 0001:00008c40       ?unloadApp@@YAXXZ          0000000180009c40 f   LineManageAssitant.obj
 0001:0000b194       pre_c_init                 000000018000c194 f   msvcrt:crtdll.obj
 0001:0000b450       __DllMainCRTStartup        000000018000c450 f   msvcrt:crtdll.obj
 0001:0000b688       ?DebuggerProbe@@YAHK@Z     000000018000c688 f   msvcrt:_error_.obj
 0001:0000b6c8       ?DebuggerRuntime@@YAHKHPEAXPEB_W@Z 000000018000c6c8 f   msvcrt:_error_.obj
 0001:0000b714       ?failwithmessage@@YAXPEAXHHPEBD@Z 000000018000c714 f   msvcrt:_error_.obj
 0001:0000be0c       ?GetPdbDll@@YAPEAUHINSTANCE__@@XZ 000000018000ce0c f   msvcrt:_pdblkup_.obj
 0001:0000c500       ?dtor$0@?0??InitLineDetailData@AddLineDialog@@IEAAHXZ@4HA 000000018000d500 f   AddLineDialog.obj
 0001:0000c530       ?dtor$0@?0???0AddLineDialog@@QEAA@PEAVCWnd@@@Z@4HA 000000018000d530 f   AddLineDialog.obj
 0001:0000c530       ?dtor$0@?0???1AddLineDialog@@UEAA@XZ@4HA 000000018000d530 f   AddLineDialog.obj
 0001:0000c560       ?dtor$1@?0???0AddLineDialog@@QEAA@PEAVCWnd@@@Z@4HA 000000018000d560 f   AddLineDialog.obj
 0001:0000c560       ?dtor$1@?0???1AddLineDialog@@UEAA@XZ@4HA 000000018000d560 f   AddLineDialog.obj
 0001:0000c590       ?dtor$0@?0???0CommandManager@@AEAA@XZ@4HA 000000018000d590 f   CommandManager.obj
 0001:0000c5c0       ?dtor$1@?0???0CommandManager@@AEAA@XZ@4HA 000000018000d5c0 f   CommandManager.obj
 0001:0000c5f0       ?dtor$2@?0???0CommandManager@@AEAA@XZ@4HA 000000018000d5f0 f   CommandManager.obj
 0001:0000c620       ?dtor$3@?0???0CommandManager@@AEAA@XZ@4HA 000000018000d620 f   CommandManager.obj
 0001:0000c650       ?dtor$0@?0??RegisterCommand@CommandManager@@QEBAXXZ@4HA 000000018000d650 f   CommandManager.obj
 0001:0000c680       ?dtor$1@?0??RegisterCommand@CommandManager@@QEBAXXZ@4HA 000000018000d680 f   CommandManager.obj
 0001:0000c6b0       ?dtor$0@?0??ShowConfigDialog@CommandManager@@SAXXZ@4HA 000000018000d6b0 f   CommandManager.obj
 0001:0000c6e0       ?dtor$0@?0??drawCylinder@@YAXXZ@4HA 000000018000d6e0 f   CommandManager.obj
 0001:0000c710       ?dtor$1@?0??drawCylinder@@YAXXZ@4HA 000000018000d710 f   CommandManager.obj
 0001:0000c740       ?dtor$0@?0???1?$basic_string@_WU?$char_traits@_W@std@@V?$allocator@_W@2@@std@@QEAA@XZ@4HA 000000018000d740 f   CommandManager.obj
 0001:0000c740       ?dtor$0@?0???1CMenu@@UEAA@XZ@4HA 000000018000d740 f   CommandManager.obj
 0001:0000c740       ?dtor$0@?0???1?$basic_string@DU?$char_traits@D@std@@V?$allocator@D@2@@std@@QEAA@XZ@4HA 000000018000d740 f   CommandManager.obj
 0001:0000c770       ?dtor$0@?0???A?$map@V?$basic_string@_WU?$char_traits@_W@std@@V?$allocator@_W@2@@std@@P6AXXZU?$less@V?$basic_string@_WU?$char_traits@_W@std@@V?$allocator@_W@2@@std@@@2@V?$allocator@U?$pair@$$CBV?$basic_string@_WU?$char_traits@_W@std@@V?$allocator@_W@2@@std@@P6AXXZ@std@@@2@@std@@QEAAAEAP6AXXZAEBV?$basic_string@_WU?$char_traits@_W@std@@V?$allocator@_W@2@@1@@Z@4HA 000000018000d770 f   CommandManager.obj
 0001:0000c7a0       ?dtor$0@?0???1?$_Tree@V?$_Tmap_traits@V?$basic_string@_WU?$char_traits@_W@std@@V?$allocator@_W@2@@std@@P6AXXZU?$less@V?$basic_string@_WU?$char_traits@_W@std@@V?$allocator@_W@2@@std@@@2@V?$allocator@U?$pair@$$CBV?$basic_string@_WU?$char_traits@_W@std@@V?$allocator@_W@2@@std@@P6AXXZ@std@@@2@$0A@@std@@@std@@QEAA@XZ@4HA 000000018000d7a0 f   CommandManager.obj
 0001:0000c7d0       ?dtor$0@?0???0?$basic_string@_WU?$char_traits@_W@std@@V?$allocator@_W@2@@std@@QEAA@PEB_W@Z@4HA 000000018000d7d0 f   CommandManager.obj
 0001:0000c7d0       ?dtor$0@?0???0?$basic_string@_WU?$char_traits@_W@std@@V?$allocator@_W@2@@std@@QEAA@AEBV01@@Z@4HA 000000018000d7d0 f   CommandManager.obj
 0001:0000c7d0       ?dtor$0@?0???0?$basic_string@DU?$char_traits@D@std@@V?$allocator@D@2@@std@@QEAA@PEBD@Z@4HA 000000018000d7d0 f   CommandManager.obj
 0001:0000c800       ?catch$1@?0??_Copy@?$basic_string@_WU?$char_traits@_W@std@@V?$allocator@_W@2@@std@@QEAAX_K0@Z@4HA 000000018000d800 f   CommandManager.obj
 0001:0000c813       __catch$?_Copy@?$basic_string@_WU?$char_traits@_W@std@@V?$allocator@_W@2@@std@@QEAAX_K0@Z$0 000000018000d813 f   CommandManager.obj
 0001:0000c850       ?catch$0@?0??_Copy@?$basic_string@_WU?$char_traits@_W@std@@V?$allocator@_W@2@@std@@QEAAX_K0@Z@4HA 000000018000d850 f   CommandManager.obj
 0001:0000c863       __catch$?_Copy@?$basic_string@_WU?$char_traits@_W@std@@V?$allocator@_W@2@@std@@QEAAX_K0@Z$1 000000018000d863 f   CommandManager.obj
 0001:0000c890       ?catch$0@?0???$_Buynode@U?$pair@$$CBV?$basic_string@_WU?$char_traits@_W@std@@V?$allocator@_W@2@@std@@P6AXXZ@std@@@?$_Tree_val@V?$_Tmap_traits@V?$basic_string@_WU?$char_traits@_W@std@@V?$allocator@_W@2@@std@@P6AXXZU?$less@V?$basic_string@_WU?$char_traits@_W@std@@V?$allocator@_W@2@@std@@@2@V?$allocator@U?$pair@$$CBV?$basic_string@_WU?$char_traits@_W@std@@V?$allocator@_W@2@@std@@P6AXXZ@std@@@2@$0A@@std@@@std@@QEAAPEAU_Node@?$_Tree_nod@V?$_Tmap_traits@V?$basic_string@_WU?$char_traits@_W@std@@V?$allocator@_W@2@@std@@P6AXXZU?$less@V?$basic_string@_WU?$char_traits@_W@std@@V?$allocator@_W@2@@std@@@2@V?$allocator@U?$pair@$$CBV?$basic_string@_WU?$char_traits@_W@std@@V?$allocator@_W@2@@std@@P6AXXZ@std@@@2@$0A@@std@@@1@$$QEAU?$pair@$$CBV?$basic_string@_WU?$char_traits@_W@std@@V?$allocator@_W@2@@std@@P6AXXZ@1@@Z@4HA 000000018000d890 f   CommandManager.obj
 0001:0000c8a3       __catch$??$_Buynode@U?$pair@$$CBV?$basic_string@_WU?$char_traits@_W@std@@V?$allocator@_W@2@@std@@P6AXXZ@std@@@?$_Tree_val@V?$_Tmap_traits@V?$basic_string@_WU?$char_traits@_W@std@@V?$allocator@_W@2@@std@@P6AXXZU?$less@V?$basic_string@_WU?$char_traits@_W@std@@V?$allocator@_W@2@@std@@@2@V?$allocator@U?$pair@$$CBV?$basic_string@_WU?$char_traits@_W@std@@V?$allocator@_W@2@@std@@P6AXXZ@std@@@2@$0A@@std@@@std@@QEAAPEAU_Node@?$_Tree_nod@V?$_Tmap_traits@V?$basic_string@_WU?$char_traits@_W@std@@V?$allocator@_W@2@@std@@P6AXXZU?$less@V?$basic_string@_WU?$char_traits@_W@std@@V?$allocator@_W@2@@std@@@2@V?$allocator@U?$pair@$$CBV?$basic_string@_WU?$char_traits@_W@std@@V?$allocator@_W@2@@std@@P6AXXZ@std@@@2@$0A@@std@@@1@$$QEAU?$pair@$$CBV?$basic_string@_WU?$char_traits@_W@std@@V?$allocator@_W@2@@std@@P6AXXZ@1@@Z$0 000000018000d8a3 f   CommandManager.obj
 0001:0000c8e0       ?dtor$0@?0???0?$_Pair_base@$$CBV?$basic_string@_WU?$char_traits@_W@std@@V?$allocator@_W@2@@std@@P6AXXZ@std@@QEAA@$$QEBV?$basic_string@_WU?$char_traits@_W@std@@V?$allocator@_W@2@@1@$$QEAP6AXXZ@Z@4HA 000000018000d8e0 f   CommandManager.obj
 0001:0000c8e0       ?dtor$0@?0???0?$_Pair_base@$$CBV?$basic_string@_WU?$char_traits@_W@std@@V?$allocator@_W@2@@std@@P6AXXZ@std@@QEAA@AEBV?$basic_string@_WU?$char_traits@_W@std@@V?$allocator@_W@2@@1@$$QEAP6AXXZ@Z@4HA 000000018000d8e0 f   CommandManager.obj
 0001:0000c910       ?dtor$0@?0???0LineCategoryItemData@config@assistent@guch@com@@QEAA@AEBV?$basic_string@_WU?$char_traits@_W@std@@V?$allocator@_W@2@@std@@00000000@Z@4HA 000000018000d910 f   LineCategoryItemData.obj
 0001:0000c940       ?dtor$1@?0???0LineCategoryItemData@config@assistent@guch@com@@QEAA@AEBV?$basic_string@_WU?$char_traits@_W@std@@V?$allocator@_W@2@@std@@00000000@Z@4HA 000000018000d940 f   LineCategoryItemData.obj
 0001:0000c970       ?dtor$2@?0???0LineCategoryItemData@config@assistent@guch@com@@QEAA@AEBV?$basic_string@_WU?$char_traits@_W@std@@V?$allocator@_W@2@@std@@00000000@Z@4HA 000000018000d970 f   LineCategoryItemData.obj
 0001:0000c9a0       ?dtor$3@?0???0LineCategoryItemData@config@assistent@guch@com@@QEAA@AEBV?$basic_string@_WU?$char_traits@_W@std@@V?$allocator@_W@2@@std@@00000000@Z@4HA 000000018000d9a0 f   LineCategoryItemData.obj
 0001:0000c9d0       ?dtor$4@?0???0LineCategoryItemData@config@assistent@guch@com@@QEAA@AEBV?$basic_string@_WU?$char_traits@_W@std@@V?$allocator@_W@2@@std@@00000000@Z@4HA 000000018000d9d0 f   LineCategoryItemData.obj
 0001:0000ca00       ?dtor$5@?0???0LineCategoryItemData@config@assistent@guch@com@@QEAA@AEBV?$basic_string@_WU?$char_traits@_W@std@@V?$allocator@_W@2@@std@@00000000@Z@4HA 000000018000da00 f   LineCategoryItemData.obj
 0001:0000ca30       ?dtor$6@?0???0LineCategoryItemData@config@assistent@guch@com@@QEAA@AEBV?$basic_string@_WU?$char_traits@_W@std@@V?$allocator@_W@2@@std@@00000000@Z@4HA 000000018000da30 f   LineCategoryItemData.obj
 0001:0000ca60       ?dtor$7@?0???0LineCategoryItemData@config@assistent@guch@com@@QEAA@AEBV?$basic_string@_WU?$char_traits@_W@std@@V?$allocator@_W@2@@std@@00000000@Z@4HA 000000018000da60 f   LineCategoryItemData.obj
 0001:0000ca90       ?dtor$0@?0???0LineConfigDataManager@config@assistent@guch@com@@QEAA@XZ@4HA 000000018000da90 f   LineConfigDataManager.obj
 0001:0000cac0       ?dtor$1@?0???0LineConfigDataManager@config@assistent@guch@com@@QEAA@XZ@4HA 000000018000dac0 f   LineConfigDataManager.obj
 0001:0000caf0       ?dtor$2@?0???0LineConfigDataManager@config@assistent@guch@com@@QEAA@XZ@4HA 000000018000daf0 f   LineConfigDataManager.obj
 0001:0000cb20       ?dtor$3@?0???0LineConfigDataManager@config@assistent@guch@com@@QEAA@XZ@4HA 000000018000db20 f   LineConfigDataManager.obj
 0001:0000cb60       ?dtor$4@?0???0LineConfigDataManager@config@assistent@guch@com@@QEAA@XZ@4HA 000000018000db60 f   LineConfigDataManager.obj
 0001:0000cba0       ?dtor$5@?0???0LineConfigDataManager@config@assistent@guch@com@@QEAA@XZ@4HA 000000018000dba0 f   LineConfigDataManager.obj
 0001:0000cbe0       ?dtor$6@?0???0LineConfigDataManager@config@assistent@guch@com@@QEAA@XZ@4HA 000000018000dbe0 f   LineConfigDataManager.obj
 0001:0000cc20       ?dtor$7@?0???0LineConfigDataManager@config@assistent@guch@com@@QEAA@XZ@4HA 000000018000dc20 f   LineConfigDataManager.obj
 0001:0000cc60       ?catch$0@?0??reserve@?$vector@PEAULineCategoryItemData@config@assistent@guch@com@@V?$allocator@PEAULineCategoryItemData@config@assistent@guch@com@@@std@@@std@@QEAAX_K@Z@4HA 000000018000dc60 f   LineConfigDataManager.obj
 0001:0000cc73       __catch$?reserve@?$vector@PEAULineCategoryItemData@config@assistent@guch@com@@V?$allocator@PEAULineCategoryItemData@config@assistent@guch@com@@@std@@@std@@QEAAX_K@Z$0 000000018000dc73 f   LineConfigDataManager.obj
 0001:0000ccb0       ?dtor$0@?0??construct@?$allocator@U?$pair@$$CBV?$basic_string@_WU?$char_traits@_W@std@@V?$allocator@_W@2@@std@@P6AXXZ@std@@@std@@QEAAXPEAU?$pair@$$CBV?$basic_string@_WU?$char_traits@_W@std@@V?$allocator@_W@2@@std@@P6AXXZ@2@$$QEAU32@@Z@4HA 000000018000dcb0 f   LineConfigDataManager.obj
 0001:0000ccb0       ?dtor$0@?0???$construct@AEAPEAULineCategoryItemData@config@assistent@guch@com@@@?$allocator@PEAULineCategoryItemData@config@assistent@guch@com@@@std@@QEAAXPEAPEAULineCategoryItemData@config@assistent@guch@com@@AEAPEAU23456@@Z@4HA 000000018000dcb0 f   LineConfigDataManager.obj
 0001:0000cce0       ?dtor$0@?0???$_Construct@PEAULineCategoryItemData@config@assistent@guch@com@@AEBQEAU12345@@std@@YAXPEAPEAULineCategoryItemData@config@assistent@guch@com@@AEBQEAU12345@@Z@4HA 000000018000dce0 f   LineConfigDataManager.obj
 0001:0000cd10       ?catch$1@?0??_Copy@?$basic_string@DU?$char_traits@D@std@@V?$allocator@D@2@@std@@QEAAX_K0@Z@4HA 000000018000dd10 f   LineConfigDataManager.obj
 0001:0000cd23       __catch$?_Copy@?$basic_string@DU?$char_traits@D@std@@V?$allocator@D@2@@std@@QEAAX_K0@Z$0 000000018000dd23 f   LineConfigDataManager.obj
 0001:0000cd60       ?catch$0@?0??_Copy@?$basic_string@DU?$char_traits@D@std@@V?$allocator@D@2@@std@@QEAAX_K0@Z@4HA 000000018000dd60 f   LineConfigDataManager.obj
 0001:0000cd73       __catch$?_Copy@?$basic_string@DU?$char_traits@D@std@@V?$allocator@D@2@@std@@QEAAX_K0@Z$1 000000018000dd73 f   LineConfigDataManager.obj
 0001:0000cda0       ?dtor$0@?0???0LineConfigDialog@config@assistent@guch@com@@QEAA@PEAVCWnd@@@Z@4HA 000000018000dda0 f   LineConfigDialog.obj
 0001:0000cda0       ?dtor$0@?0???1LineConfigDialog@config@assistent@guch@com@@UEAA@XZ@4HA 000000018000dda0 f   LineConfigDialog.obj
 0001:0000cdd0       ?dtor$0@?0??ShowAddLineDialog@CommandManager@@SAXXZ@4HA 000000018000ddd0 f   LineConfigDialog.obj
 0001:0000cdd0       ?dtor$0@?0??OnBnClickedButtonAdd@LineConfigDialog@config@assistent@guch@com@@IEAAXXZ@4HA 000000018000ddd0 f   LineConfigDialog.obj
 0001:0000ce00       ?dtor$0@?0??AttachInstance@CAcExtensionModule@@QEAAHPEAUHINSTANCE__@@@Z@4HA 000000018000de00 f   LineManageAssitant.obj
 0001:0000ce30       ?dtor$0@?0???0MenuLMAMain@@QEAA@XZ@4HA 000000018000de30 f   MenuLMAMain.obj
 0001:0000ce60       ?dtor$1@?0???0MenuLMAMain@@QEAA@XZ@4HA 000000018000de60 f   MenuLMAMain.obj
 0001:0000ce90       ?dtor$0@?0???1MenuLMAMain@@UEAA@XZ@4HA 000000018000de90 f   MenuLMAMain.obj
 0001:0000cec0       ?dtor$0@?0??onCommand@MenuLMAMain@@UEAAXK@Z@4HA 000000018000dec0 f   MenuLMAMain.obj
 0001:0000cef0       ?dtor$1@?0??onCommand@MenuLMAMain@@UEAAXK@Z@4HA 000000018000def0 f   MenuLMAMain.obj
 0001:0000cf20       ?dtor$0@?0??CreateMenu@MenuManager@@SAXPEAX@Z@4HA 000000018000df20 f   MenuManager.obj
 0001:0000cf20       ?dtor$0@?0??Instance@LineConfigDataManager@config@assistent@guch@com@@SAPEAV12345@XZ@4HA 000000018000df20 f   MenuManager.obj
 0001:0000cf20       ?dtor$0@?0??RegisterMenu@MenuManager@@AEAAXXZ@4HA 000000018000df20 f   MenuManager.obj
 0001:0000cf20       ?dtor$0@?0??instance@CommandManager@@SAPEAV1@XZ@4HA 000000018000df20 f   MenuManager.obj
 0001:0000cf50       ?dtor$0@?0??AddDropdownMenu@MenuManager@@AEAAXXZ@4HA 000000018000df50 f   MenuManager.obj
 0001:0000cf80       ?dtor$1@?0??AddDropdownMenu@MenuManager@@AEAAXXZ@4HA 000000018000df80 f   MenuManager.obj
 0001:0000cfb0       ?dtor$2@?0??AddDropdownMenu@MenuManager@@AEAAXXZ@4HA 000000018000dfb0 f   MenuManager.obj
 0001:0000cfe0       ?dtor$3@?0??AddDropdownMenu@MenuManager@@AEAAXXZ@4HA 000000018000dfe0 f   MenuManager.obj
 0001:0000d010       ?dtor$4@?0??AddDropdownMenu@MenuManager@@AEAAXXZ@4HA 000000018000e010 f   MenuManager.obj
 0001:0000d040       ?dtor$5@?0??AddDropdownMenu@MenuManager@@AEAAXXZ@4HA 000000018000e040 f   MenuManager.obj
 0001:0000d070       ?dtor$6@?0??AddDropdownMenu@MenuManager@@AEAAXXZ@4HA 000000018000e070 f   MenuManager.obj
 0001:0000d0a0       ?dtor$7@?0??AddDropdownMenu@MenuManager@@AEAAXXZ@4HA 000000018000e0a0 f   MenuManager.obj
 0001:0000d0d0       ?catch$0@?0??AddDropdownMenu@MenuManager@@AEAAXXZ@4HA 000000018000e0d0 f   MenuManager.obj
 0001:0000d0e3       __catch$?AddDropdownMenu@MenuManager@@AEAAXXZ$0 000000018000e0e3 f   MenuManager.obj
 0001:0000d100       ?dtor$8@?0??AddDropdownMenu@MenuManager@@AEAAXXZ@4HA 000000018000e100 f   MenuManager.obj
 0001:0000d130       ?dtor$9@?0??AddDropdownMenu@MenuManager@@AEAAXXZ@4HA 000000018000e130 f   MenuManager.obj
 0001:0000d160       ?dtor$10@?0??AddDropdownMenu@MenuManager@@AEAAXXZ@4HA 000000018000e160 f   MenuManager.obj
 0001:0000d190       ?catch$1@?0??AddDropdownMenu@MenuManager@@AEAAXXZ@4HA 000000018000e190 f   MenuManager.obj
 0001:0000d1a3       __catch$?AddDropdownMenu@MenuManager@@AEAAXXZ$2 000000018000e1a3 f   MenuManager.obj
 0001:0000d1f0       ?dtor$0@?0??RemoveDropdownMenu@MenuManager@@AEAAXXZ@4HA 000000018000e1f0 f   MenuManager.obj
 0001:0000d220       ?dtor$1@?0??RemoveDropdownMenu@MenuManager@@AEAAXXZ@4HA 000000018000e220 f   MenuManager.obj
 0001:0000d250       ?dtor$2@?0??RemoveDropdownMenu@MenuManager@@AEAAXXZ@4HA 000000018000e250 f   MenuManager.obj
 0001:0000d280       ?dtor$3@?0??RemoveDropdownMenu@MenuManager@@AEAAXXZ@4HA 000000018000e280 f   MenuManager.obj
 0001:0000d2b0       ?dtor$4@?0??RemoveDropdownMenu@MenuManager@@AEAAXXZ@4HA 000000018000e2b0 f   MenuManager.obj
 0001:0000d2e0       ?dtor$5@?0??RemoveDropdownMenu@MenuManager@@AEAAXXZ@4HA 000000018000e2e0 f   MenuManager.obj
 0001:0000d310       ?dtor$6@?0??RemoveDropdownMenu@MenuManager@@AEAAXXZ@4HA 000000018000e310 f   MenuManager.obj
 0001:0000d340       ?dtor$7@?0??RemoveDropdownMenu@MenuManager@@AEAAXXZ@4HA 000000018000e340 f   MenuManager.obj
 0001:0000d370       ?catch$0@?0??RemoveDropdownMenu@MenuManager@@AEAAXXZ@4HA 000000018000e370 f   MenuManager.obj
 0001:0000d383       __catch$?RemoveDropdownMenu@MenuManager@@AEAAXXZ$0 000000018000e383 f   MenuManager.obj
 0001:0000d3a0       ?dtor$8@?0??RemoveDropdownMenu@MenuManager@@AEAAXXZ@4HA 000000018000e3a0 f   MenuManager.obj
 0001:0000d3d0       ?catch$1@?0??RemoveDropdownMenu@MenuManager@@AEAAXXZ@4HA 000000018000e3d0 f   MenuManager.obj
 0001:0000d3e3       __catch$?RemoveDropdownMenu@MenuManager@@AEAAXXZ$2 000000018000e3e3 f   MenuManager.obj
 0001:0000d423       _onexit$fin$0              000000018000e423 f   msvcrt:atonexit.obj
 0001:0000d43e       __DllMainCRTStartup$filt$0 000000018000e43e f   msvcrt:crtdll.obj
 0001:0000d46e       __DllMainCRTStartup$fin$1  000000018000e46e f   msvcrt:crtdll.obj
 0001:0000d488       ?filt$0@?0??__ArrayUnwind@@YAXPEAX_KHP6AX0@Z@Z@4HA 000000018000e488 f   msvcrt:ehvecdtr.obj
 0001:0000d4c9       ?fin$0@?0???_M@YAXPEAX_KHP6AX0@Z@Z@4HA 000000018000e4c9 f   msvcrt:ehvecdtr.obj
 0001:0000d500       _IsNonwritableInCurrentImage$filt$0 000000018000e500 f   msvcrt:pesect.obj
 0001:0000d530       ??__E_afxDefaultAcceleratorDelimiter@@YAXXZ 000000018000e530 f   AddLineDialog.obj
 0001:0000d570       ??__E_afxDefaultAcceleratorDelimiter@@YAXXZ 000000018000e570 f   AsdkAcUiDialogSample.obj
 0001:0000d5b0       ??__E_afxDefaultAcceleratorDelimiter@@YAXXZ 000000018000e5b0 f   CommandManager.obj
 0001:0000d5f0       ??__E_afxDefaultAcceleratorDelimiter@@YAXXZ 000000018000e5f0 f   GlobalDataConfig.obj
 0001:0000d630       ??__E?KIND_LINE@GlobalData@data@assistent@guch@com@@2V?$basic_string@_WU?$char_traits@_W@std@@V?$allocator@_W@2@@std@@B@@YAXXZ 000000018000e630 f   GlobalDataConfig.obj
 0001:0000d670       ??__E?KIND_SEPERATOR@GlobalData@data@assistent@guch@com@@2V?$basic_string@_WU?$char_traits@_W@std@@V?$allocator@_W@2@@std@@B@@YAXXZ 000000018000e670 f   GlobalDataConfig.obj
 0001:0000d6b0       ??__E?LINE_CATEGORY_SHANGSHUI@GlobalData@data@assistent@guch@com@@2V?$basic_string@_WU?$char_traits@_W@std@@V?$allocator@_W@2@@std@@B@@YAXXZ 000000018000e6b0 f   GlobalDataConfig.obj
 0001:0000d6f0       ??__E?LINE_CATEGORY_XIASHUI@GlobalData@data@assistent@guch@com@@2V?$basic_string@_WU?$char_traits@_W@std@@V?$allocator@_W@2@@std@@B@@YAXXZ 000000018000e6f0 f   GlobalDataConfig.obj
 0001:0000d730       ??__E?LINE_CATEGORY_NUANQI@GlobalData@data@assistent@guch@com@@2V?$basic_string@_WU?$char_traits@_W@std@@V?$allocator@_W@2@@std@@B@@YAXXZ 000000018000e730 f   GlobalDataConfig.obj
 0001:0000d770       ??__E?LINE_SHAPE_CIRCLE@GlobalData@data@assistent@guch@com@@2V?$basic_string@_WU?$char_traits@_W@std@@V?$allocator@_W@2@@std@@B@@YAXXZ 000000018000e770 f   GlobalDataConfig.obj
 0001:0000d7b0       ??__E?LINE_SHAPE_SQUARE@GlobalData@data@assistent@guch@com@@2V?$basic_string@_WU?$char_traits@_W@std@@V?$allocator@_W@2@@std@@B@@YAXXZ 000000018000e7b0 f   GlobalDataConfig.obj
 0001:0000d7f0       ??__E?LINE_UNIT_MM@GlobalData@data@assistent@guch@com@@2V?$basic_string@_WU?$char_traits@_W@std@@V?$allocator@_W@2@@std@@B@@YAXXZ 000000018000e7f0 f   GlobalDataConfig.obj
 0001:0000d830       ??__E?LINE_UNIT_CM@GlobalData@data@assistent@guch@com@@2V?$basic_string@_WU?$char_traits@_W@std@@V?$allocator@_W@2@@std@@B@@YAXXZ 000000018000e830 f   GlobalDataConfig.obj
 0001:0000d870       ??__E?LINE_UNIT_M@GlobalData@data@assistent@guch@com@@2V?$basic_string@_WU?$char_traits@_W@std@@V?$allocator@_W@2@@std@@B@@YAXXZ 000000018000e870 f   GlobalDataConfig.obj
 0001:0000d8b0       ??__E_afxDefaultAcceleratorDelimiter@@YAXXZ 000000018000e8b0 f   LineCategoryItemData.obj
 0001:0000d8f0       ??__E_afxDefaultAcceleratorDelimiter@@YAXXZ 000000018000e8f0 f   LineConfigDataManager.obj
 0001:0000d930       ??__E?PERSISTENT_FILE@LineConfigDataManager@config@assistent@guch@com@@2V?$basic_string@DU?$char_traits@D@std@@V?$allocator@D@2@@std@@B@@YAXXZ 000000018000e930 f   LineConfigDataManager.obj
 0001:0000d970       ??__E_afxDefaultAcceleratorDelimiter@@YAXXZ 000000018000e970 f   LineConfigDialog.obj
 0001:0000d9b0       ??__E_afxDefaultAcceleratorDelimiter@@YAXXZ 000000018000e9b0 f   LineManageAssitant.obj
 0001:0000d9f0       ??__EtheArxDLL@@YAXXZ      000000018000e9f0 f   LineManageAssitant.obj
 0001:0000da30       ??__E_afxDefaultAcceleratorDelimiter@@YAXXZ 000000018000ea30 f   MenuLMAMain.obj
 0001:0000da70       ??__E_afxDefaultAcceleratorDelimiter@@YAXXZ 000000018000ea70 f   MenuManager.obj
 0001:0000dab0       ??__E_afxDefaultAcceleratorDelimiter@@YAXXZ 000000018000eab0 f   StdAfx.obj
 0001:0000daf0       ??__F_afxDefaultAcceleratorDelimiter@@YAXXZ 000000018000eaf0 f   AddLineDialog.obj
 0001:0000db20       ??__F_afxDefaultAcceleratorDelimiter@@YAXXZ 000000018000eb20 f   AsdkAcUiDialogSample.obj
 0001:0000db50       ??__F_afxDefaultAcceleratorDelimiter@@YAXXZ 000000018000eb50 f   CommandManager.obj
 0001:0000db80       ??__F_afxDefaultAcceleratorDelimiter@@YAXXZ 000000018000eb80 f   GlobalDataConfig.obj
 0001:0000dbb0       ??__F?KIND_LINE@GlobalData@data@assistent@guch@com@@2V?$basic_string@_WU?$char_traits@_W@std@@V?$allocator@_W@2@@std@@B@@YAXXZ 000000018000ebb0 f   GlobalDataConfig.obj
 0001:0000dbe0       ??__F?KIND_SEPERATOR@GlobalData@data@assistent@guch@com@@2V?$basic_string@_WU?$char_traits@_W@std@@V?$allocator@_W@2@@std@@B@@YAXXZ 000000018000ebe0 f   GlobalDataConfig.obj
 0001:0000dc10       ??__F?LINE_CATEGORY_SHANGSHUI@GlobalData@data@assistent@guch@com@@2V?$basic_string@_WU?$char_traits@_W@std@@V?$allocator@_W@2@@std@@B@@YAXXZ 000000018000ec10 f   GlobalDataConfig.obj
 0001:0000dc40       ??__F?LINE_CATEGORY_XIASHUI@GlobalData@data@assistent@guch@com@@2V?$basic_string@_WU?$char_traits@_W@std@@V?$allocator@_W@2@@std@@B@@YAXXZ 000000018000ec40 f   GlobalDataConfig.obj
 0001:0000dc70       ??__F?LINE_CATEGORY_NUANQI@GlobalData@data@assistent@guch@com@@2V?$basic_string@_WU?$char_traits@_W@std@@V?$allocator@_W@2@@std@@B@@YAXXZ 000000018000ec70 f   GlobalDataConfig.obj
 0001:0000dca0       ??__F?LINE_SHAPE_CIRCLE@GlobalData@data@assistent@guch@com@@2V?$basic_string@_WU?$char_traits@_W@std@@V?$allocator@_W@2@@std@@B@@YAXXZ 000000018000eca0 f   GlobalDataConfig.obj
 0001:0000dcd0       ??__F?LINE_SHAPE_SQUARE@GlobalData@data@assistent@guch@com@@2V?$basic_string@_WU?$char_traits@_W@std@@V?$allocator@_W@2@@std@@B@@YAXXZ 000000018000ecd0 f   GlobalDataConfig.obj
 0001:0000dd00       ??__F?LINE_UNIT_MM@GlobalData@data@assistent@guch@com@@2V?$basic_string@_WU?$char_traits@_W@std@@V?$allocator@_W@2@@std@@B@@YAXXZ 000000018000ed00 f   GlobalDataConfig.obj
 0001:0000dd30       ??__F?LINE_UNIT_CM@GlobalData@data@assistent@guch@com@@2V?$basic_string@_WU?$char_traits@_W@std@@V?$allocator@_W@2@@std@@B@@YAXXZ 000000018000ed30 f   GlobalDataConfig.obj
 0001:0000dd60       ??__F?LINE_UNIT_M@GlobalData@data@assistent@guch@com@@2V?$basic_string@_WU?$char_traits@_W@std@@V?$allocator@_W@2@@std@@B@@YAXXZ 000000018000ed60 f   GlobalDataConfig.obj
 0001:0000dd90       ??__F_afxDefaultAcceleratorDelimiter@@YAXXZ 000000018000ed90 f   LineCategoryItemData.obj
 0001:0000ddc0       ??__F_afxDefaultAcceleratorDelimiter@@YAXXZ 000000018000edc0 f   LineConfigDataManager.obj
 0001:0000ddf0       ??__F?PERSISTENT_FILE@LineConfigDataManager@config@assistent@guch@com@@2V?$basic_string@DU?$char_traits@D@std@@V?$allocator@D@2@@std@@B@@YAXXZ 000000018000edf0 f   LineConfigDataManager.obj
 0001:0000de20       ??__F_afxDefaultAcceleratorDelimiter@@YAXXZ 000000018000ee20 f   LineConfigDialog.obj
 0001:0000de50       ??__F_afxDefaultAcceleratorDelimiter@@YAXXZ 000000018000ee50 f   LineManageAssitant.obj
 0001:0000de80       ??__FtheArxDLL@@YAXXZ      000000018000ee80 f   LineManageAssitant.obj
 0001:0000deb0       ??__F_afxDefaultAcceleratorDelimiter@@YAXXZ 000000018000eeb0 f   MenuLMAMain.obj
 0001:0000dee0       ??__F_afxDefaultAcceleratorDelimiter@@YAXXZ 000000018000eee0 f   MenuManager.obj
 0001:0000df10       ??__F_afxDefaultAcceleratorDelimiter@@YAXXZ 000000018000ef10 f   StdAfx.obj

 Exports

  ordinal    name

        1    acrxEntryPoint
        2    acrxGetApiVersion
